Archive member included to satisfy reference by file (symbol)

c:/program files/microchip/xc32/v2.41/bin/bin/../../lib/gcc/pic32c/6.2.1/../../../../pic32c/lib\libpic32c.a(data_init.o)
                              build/default/production/_ext/1171490990/startup_xc32.o (__pic32c_data_initialization)
c:/program files/microchip/xc32/v2.41/bin/bin/../../lib/gcc/pic32c/6.2.1\libgcc.a(_udivsi3.o)
                              build/default/production/_ext/101884895/sys_time.o (__aeabi_uidiv)
c:/program files/microchip/xc32/v2.41/bin/bin/../../lib/gcc/pic32c/6.2.1\libgcc.a(_divsi3.o)
                              build/default/production/_ext/101884895/sys_time.o (__aeabi_idiv)
c:/program files/microchip/xc32/v2.41/bin/bin/../../lib/gcc/pic32c/6.2.1\libgcc.a(_dvmd_tls.o)
                              c:/program files/microchip/xc32/v2.41/bin/bin/../../lib/gcc/pic32c/6.2.1\libgcc.a(_udivsi3.o) (__aeabi_idiv0)
c:/program files/microchip/xc32/v2.41/bin/bin/../../lib/gcc/pic32c/6.2.1\libgcc.a(_aeabi_uldivmod.o)
                              build/default/production/_ext/504274921/plib_sercom5_usart.o (__aeabi_uldivmod)
c:/program files/microchip/xc32/v2.41/bin/bin/../../lib/gcc/pic32c/6.2.1\libgcc.a(_muldi3.o)
                              build/default/production/_ext/504274921/plib_sercom5_usart.o (__aeabi_lmul)
c:/program files/microchip/xc32/v2.41/bin/bin/../../lib/gcc/pic32c/6.2.1\libgcc.a(_udivmoddi4.o)
                              c:/program files/microchip/xc32/v2.41/bin/bin/../../lib/gcc/pic32c/6.2.1\libgcc.a(_aeabi_uldivmod.o) (__udivmoddi4)
c:/program files/microchip/xc32/v2.41/bin/bin/../../lib/gcc/pic32c/6.2.1\libgcc.a(_lshrdi3.o)
                              c:/program files/microchip/xc32/v2.41/bin/bin/../../lib/gcc/pic32c/6.2.1\libgcc.a(_udivmoddi4.o) (__aeabi_llsr)
c:/program files/microchip/xc32/v2.41/bin/bin/../../lib/gcc/pic32c/6.2.1\libgcc.a(_ashldi3.o)
                              c:/program files/microchip/xc32/v2.41/bin/bin/../../lib/gcc/pic32c/6.2.1\libgcc.a(_udivmoddi4.o) (__aeabi_llsl)
c:/program files/microchip/xc32/v2.41/bin/bin/../../lib/gcc/pic32c/6.2.1\libgcc.a(_clzdi2.o)
                              c:/program files/microchip/xc32/v2.41/bin/bin/../../lib/gcc/pic32c/6.2.1\libgcc.a(_udivmoddi4.o) (__clzdi2)
c:/program files/microchip/xc32/v2.41/bin/bin/../../lib/gcc/pic32c/6.2.1\libgcc.a(_clzsi2.o)
                              c:/program files/microchip/xc32/v2.41/bin/bin/../../lib/gcc/pic32c/6.2.1\libgcc.a(_clzdi2.o) (__clzsi2)
c:/program files/microchip/xc32/v2.41/bin/bin/../../lib/gcc/pic32c/6.2.1/../../../../pic32c/lib\libc_nano.a(lib_a-impure.o)
                              build/default/production/_ext/1171490990/initialization.o (_impure_ptr)
c:/program files/microchip/xc32/v2.41/bin/bin/../../lib/gcc/pic32c/6.2.1/../../../../pic32c/lib\libc_nano.a(lib_a-init.o)
                              build/default/production/_ext/1171490990/startup_xc32.o (__libc_init_array)
c:/program files/microchip/xc32/v2.41/bin/bin/../../lib/gcc/pic32c/6.2.1/../../../../pic32c/lib\libc_nano.a(lib_a-malloc.o)
                              build/default/production/_ext/308758920/usb_host.o (malloc)
c:/program files/microchip/xc32/v2.41/bin/bin/../../lib/gcc/pic32c/6.2.1/../../../../pic32c/lib\libc_nano.a(lib_a-memcpy-stub.o)
                              build/default/production/_ext/1593096446/plib_nvmctrl.o (memcpy)
c:/program files/microchip/xc32/v2.41/bin/bin/../../lib/gcc/pic32c/6.2.1/../../../../pic32c/lib\libc_nano.a(lib_a-memset.o)
                              build/default/production/_ext/308758920/usb_host_scsi.o (memset)
c:/program files/microchip/xc32/v2.41/bin/bin/../../lib/gcc/pic32c/6.2.1/../../../../pic32c/lib\libc_nano.a(lib_a-nano-freer.o)
                              c:/program files/microchip/xc32/v2.41/bin/bin/../../lib/gcc/pic32c/6.2.1/../../../../pic32c/lib\libc_nano.a(lib_a-malloc.o) (_free_r)
c:/program files/microchip/xc32/v2.41/bin/bin/../../lib/gcc/pic32c/6.2.1/../../../../pic32c/lib\libc_nano.a(lib_a-nano-mallocr.o)
                              c:/program files/microchip/xc32/v2.41/bin/bin/../../lib/gcc/pic32c/6.2.1/../../../../pic32c/lib\libc_nano.a(lib_a-malloc.o) (_malloc_r)
c:/program files/microchip/xc32/v2.41/bin/bin/../../lib/gcc/pic32c/6.2.1/../../../../pic32c/lib\libc_nano.a(lib_a-printf.o)
                              build/default/production/_ext/1360937237/app.o (printf)
c:/program files/microchip/xc32/v2.41/bin/bin/../../lib/gcc/pic32c/6.2.1/../../../../pic32c/lib\libc_nano.a(lib_a-sbrkr.o)
                              c:/program files/microchip/xc32/v2.41/bin/bin/../../lib/gcc/pic32c/6.2.1/../../../../pic32c/lib\libc_nano.a(lib_a-nano-mallocr.o) (_sbrk_r)
c:/program files/microchip/xc32/v2.41/bin/bin/../../lib/gcc/pic32c/6.2.1/../../../../pic32c/lib\libc_nano.a(_lib_a-scanf.s.o)
                              (_scanf_s)
c:/program files/microchip/xc32/v2.41/bin/bin/../../lib/gcc/pic32c/6.2.1/../../../../pic32c/lib\libc_nano.a(lib_a-setbuf.o)
                              build/default/production/_ext/1171490990/initialization.o (setbuf)
c:/program files/microchip/xc32/v2.41/bin/bin/../../lib/gcc/pic32c/6.2.1/../../../../pic32c/lib\libc_nano.a(lib_a-setvbuf.o)
                              c:/program files/microchip/xc32/v2.41/bin/bin/../../lib/gcc/pic32c/6.2.1/../../../../pic32c/lib\libc_nano.a(lib_a-setbuf.o) (setvbuf)
c:/program files/microchip/xc32/v2.41/bin/bin/../../lib/gcc/pic32c/6.2.1/../../../../pic32c/lib\libc_nano.a(lib_a-sprintf.o)
                              (sprintf)
c:/program files/microchip/xc32/v2.41/bin/bin/../../lib/gcc/pic32c/6.2.1/../../../../pic32c/lib\libc_nano.a(lib_a-strcmp.o)
                              build/default/production/_ext/1269487135/sys_fs_media_manager.o (strcmp)
c:/program files/microchip/xc32/v2.41/bin/bin/../../lib/gcc/pic32c/6.2.1/../../../../pic32c/lib\libc_nano.a(lib_a-strcpy.o)
                              build/default/production/_ext/1269487135/sys_fs.o (strcpy)
c:/program files/microchip/xc32/v2.41/bin/bin/../../lib/gcc/pic32c/6.2.1/../../../../pic32c/lib\libc_nano.a(lib_a-strlen.o)
                              build/default/production/_ext/1269487135/sys_fs.o (strlen)
c:/program files/microchip/xc32/v2.41/bin/bin/../../lib/gcc/pic32c/6.2.1/../../../../pic32c/lib\libc_nano.a(lib_a-strncmp.o)
                              build/default/production/_ext/1269487135/sys_fs.o (strncmp)
c:/program files/microchip/xc32/v2.41/bin/bin/../../lib/gcc/pic32c/6.2.1/../../../../pic32c/lib\libc_nano.a(lib_a-strncpy.o)
                              build/default/production/_ext/1269487135/sys_fs.o (strncpy)
c:/program files/microchip/xc32/v2.41/bin/bin/../../lib/gcc/pic32c/6.2.1/../../../../pic32c/lib\libc_nano.a(lib_a-fflush.o)
                              c:/program files/microchip/xc32/v2.41/bin/bin/../../lib/gcc/pic32c/6.2.1/../../../../pic32c/lib\libc_nano.a(lib_a-setvbuf.o) (_fflush_r)
c:/program files/microchip/xc32/v2.41/bin/bin/../../lib/gcc/pic32c/6.2.1/../../../../pic32c/lib\libc_nano.a(lib_a-findfp.o)
                              c:/program files/microchip/xc32/v2.41/bin/bin/../../lib/gcc/pic32c/6.2.1/../../../../pic32c/lib\libc_nano.a(lib_a-printf.o) (__sinit)
c:/program files/microchip/xc32/v2.41/bin/bin/../../lib/gcc/pic32c/6.2.1/../../../../pic32c/lib\libc_nano.a(lib_a-fwalk.o)
                              c:/program files/microchip/xc32/v2.41/bin/bin/../../lib/gcc/pic32c/6.2.1/../../../../pic32c/lib\libc_nano.a(lib_a-fflush.o) (_fwalk_reent)
c:/program files/microchip/xc32/v2.41/bin/bin/../../lib/gcc/pic32c/6.2.1/../../../../pic32c/lib\libc_nano.a(lib_a-makebuf.o)
                              c:/program files/microchip/xc32/v2.41/bin/bin/../../lib/gcc/pic32c/6.2.1/../../../../pic32c/lib\libc_nano.a(lib_a-setvbuf.o) (__swhatbuf_r)
c:/program files/microchip/xc32/v2.41/bin/bin/../../lib/gcc/pic32c/6.2.1/../../../../pic32c/lib\libc_nano.a(lib_a-mlock.o)
                              c:/program files/microchip/xc32/v2.41/bin/bin/../../lib/gcc/pic32c/6.2.1/../../../../pic32c/lib\libc_nano.a(lib_a-nano-freer.o) (__malloc_lock)
c:/program files/microchip/xc32/v2.41/bin/bin/../../lib/gcc/pic32c/6.2.1/../../../../pic32c/lib\libc_nano.a(lib_a-nano-svfprintf.o)
                              c:/program files/microchip/xc32/v2.41/bin/bin/../../lib/gcc/pic32c/6.2.1/../../../../pic32c/lib\libc_nano.a(lib_a-sprintf.o) (_svfprintf_r)
c:/program files/microchip/xc32/v2.41/bin/bin/../../lib/gcc/pic32c/6.2.1/../../../../pic32c/lib\libc_nano.a(_lib_a-nano-vfprintf.cdeEfFgGnopsuxX.o)
                              c:/program files/microchip/xc32/v2.41/bin/bin/../../lib/gcc/pic32c/6.2.1/../../../../pic32c/lib\libc_nano.a(lib_a-nano-svfprintf.o) (_printf_float)
c:/program files/microchip/xc32/v2.41/bin/bin/../../lib/gcc/pic32c/6.2.1/../../../../pic32c/lib\libc_nano.a(lib_a-nano-vfprintf_i.o)
                              c:/program files/microchip/xc32/v2.41/bin/bin/../../lib/gcc/pic32c/6.2.1/../../../../pic32c/lib\libc_nano.a(_lib_a-nano-vfprintf.cdeEfFgGnopsuxX.o) (_printf_common)
c:/program files/microchip/xc32/v2.41/bin/bin/../../lib/gcc/pic32c/6.2.1/../../../../pic32c/lib\libc_nano.a(lib_a-nano-vfprintf.o)
                              c:/program files/microchip/xc32/v2.41/bin/bin/../../lib/gcc/pic32c/6.2.1/../../../../pic32c/lib\libc_nano.a(lib_a-printf.o) (_vfprintf_r)
c:/program files/microchip/xc32/v2.41/bin/bin/../../lib/gcc/pic32c/6.2.1/../../../../pic32c/lib\libc_nano.a(_lib_a-nano-vfscanf.s.o)
                              c:/program files/microchip/xc32/v2.41/bin/bin/../../lib/gcc/pic32c/6.2.1/../../../../pic32c/lib\libc_nano.a(_lib_a-scanf.s.o) (_vfscanf_s)
c:/program files/microchip/xc32/v2.41/bin/bin/../../lib/gcc/pic32c/6.2.1/../../../../pic32c/lib\libc_nano.a(lib_a-reent.o)
                              c:/program files/microchip/xc32/v2.41/bin/bin/../../lib/gcc/pic32c/6.2.1/../../../../pic32c/lib\libc_nano.a(lib_a-sbrkr.o) (errno)
c:/program files/microchip/xc32/v2.41/bin/bin/../../lib/gcc/pic32c/6.2.1/../../../../pic32c/lib\libc_nano.a(lib_a-refill.o)
                              c:/program files/microchip/xc32/v2.41/bin/bin/../../lib/gcc/pic32c/6.2.1/../../../../pic32c/lib\libc_nano.a(_lib_a-nano-vfscanf.s.o) (__srefill_r)
c:/program files/microchip/xc32/v2.41/bin/bin/../../lib/gcc/pic32c/6.2.1/../../../../pic32c/lib\libc_nano.a(lib_a-sccl.o)
                              c:/program files/microchip/xc32/v2.41/bin/bin/../../lib/gcc/pic32c/6.2.1/../../../../pic32c/lib\libc_nano.a(_lib_a-nano-vfscanf.s.o) (__sccl)
c:/program files/microchip/xc32/v2.41/bin/bin/../../lib/gcc/pic32c/6.2.1/../../../../pic32c/lib\libc_nano.a(lib_a-__ssfputs.o)
                              c:/program files/microchip/xc32/v2.41/bin/bin/../../lib/gcc/pic32c/6.2.1/../../../../pic32c/lib\libc_nano.a(_lib_a-nano-vfprintf.cdeEfFgGnopsuxX.o) (__ssfputs_r)
c:/program files/microchip/xc32/v2.41/bin/bin/../../lib/gcc/pic32c/6.2.1/../../../../pic32c/lib\libc_nano.a(lib_a-__ssputs.o)
                              c:/program files/microchip/xc32/v2.41/bin/bin/../../lib/gcc/pic32c/6.2.1/../../../../pic32c/lib\libc_nano.a(lib_a-nano-svfprintf.o) (__ssputs_r)
c:/program files/microchip/xc32/v2.41/bin/bin/../../lib/gcc/pic32c/6.2.1/../../../../pic32c/lib\libc_nano.a(lib_a-stdio.o)
                              c:/program files/microchip/xc32/v2.41/bin/bin/../../lib/gcc/pic32c/6.2.1/../../../../pic32c/lib\libc_nano.a(lib_a-findfp.o) (__sread)
c:/program files/microchip/xc32/v2.41/bin/bin/../../lib/gcc/pic32c/6.2.1/../../../../pic32c/lib\libc_nano.a(lib_a-wbuf.o)
                              c:/program files/microchip/xc32/v2.41/bin/bin/../../lib/gcc/pic32c/6.2.1/../../../../pic32c/lib\libc_nano.a(lib_a-__ssfputs.o) (__swbuf_r)
c:/program files/microchip/xc32/v2.41/bin/bin/../../lib/gcc/pic32c/6.2.1/../../../../pic32c/lib\libc_nano.a(lib_a-writer.o)
                              c:/program files/microchip/xc32/v2.41/bin/bin/../../lib/gcc/pic32c/6.2.1/../../../../pic32c/lib\libc_nano.a(lib_a-stdio.o) (_write_r)
c:/program files/microchip/xc32/v2.41/bin/bin/../../lib/gcc/pic32c/6.2.1/../../../../pic32c/lib\libc_nano.a(lib_a-wsetup.o)
                              c:/program files/microchip/xc32/v2.41/bin/bin/../../lib/gcc/pic32c/6.2.1/../../../../pic32c/lib\libc_nano.a(_lib_a-nano-vfprintf.cdeEfFgGnopsuxX.o) (__swsetup_r)
c:/program files/microchip/xc32/v2.41/bin/bin/../../lib/gcc/pic32c/6.2.1/../../../../pic32c/lib\libc_nano.a(lib_a-closer.o)
                              c:/program files/microchip/xc32/v2.41/bin/bin/../../lib/gcc/pic32c/6.2.1/../../../../pic32c/lib\libc_nano.a(lib_a-stdio.o) (_close_r)
c:/program files/microchip/xc32/v2.41/bin/bin/../../lib/gcc/pic32c/6.2.1/../../../../pic32c/lib\libc_nano.a(lib_a-dtoa.o)
                              c:/program files/microchip/xc32/v2.41/bin/bin/../../lib/gcc/pic32c/6.2.1/../../../../pic32c/lib\libc_nano.a(_lib_a-nano-vfprintf.cdeEfFgGnopsuxX.o) (_dtoa_r)
c:/program files/microchip/xc32/v2.41/bin/bin/../../lib/gcc/pic32c/6.2.1/../../../../pic32c/lib\libc_nano.a(lib_a-fputwc.o)
                              c:/program files/microchip/xc32/v2.41/bin/bin/../../lib/gcc/pic32c/6.2.1/../../../../pic32c/lib\libc_nano.a(lib_a-__ssfputs.o) (_fputwc_r)
c:/program files/microchip/xc32/v2.41/bin/bin/../../lib/gcc/pic32c/6.2.1/../../../../pic32c/lib\libc_nano.a(lib_a-fstatr.o)
                              c:/program files/microchip/xc32/v2.41/bin/bin/../../lib/gcc/pic32c/6.2.1/../../../../pic32c/lib\libc_nano.a(lib_a-makebuf.o) (_fstat_r)
c:/program files/microchip/xc32/v2.41/bin/bin/../../lib/gcc/pic32c/6.2.1/../../../../pic32c/lib\libc_nano.a(lib_a-isattyr.o)
                              c:/program files/microchip/xc32/v2.41/bin/bin/../../lib/gcc/pic32c/6.2.1/../../../../pic32c/lib\libc_nano.a(lib_a-makebuf.o) (_isatty_r)
c:/program files/microchip/xc32/v2.41/bin/bin/../../lib/gcc/pic32c/6.2.1/../../../../pic32c/lib\libc_nano.a(lib_a-localeconv.o)
                              c:/program files/microchip/xc32/v2.41/bin/bin/../../lib/gcc/pic32c/6.2.1/../../../../pic32c/lib\libc_nano.a(_lib_a-nano-vfprintf.cdeEfFgGnopsuxX.o) (_localeconv_r)
c:/program files/microchip/xc32/v2.41/bin/bin/../../lib/gcc/pic32c/6.2.1/../../../../pic32c/lib\libc_nano.a(lib_a-locale.o)
                              c:/program files/microchip/xc32/v2.41/bin/bin/../../lib/gcc/pic32c/6.2.1/../../../../pic32c/lib\libc_nano.a(lib_a-fputwc.o) (__locale_mb_cur_max)
c:/program files/microchip/xc32/v2.41/bin/bin/../../lib/gcc/pic32c/6.2.1/../../../../pic32c/lib\libc_nano.a(lib_a-lseekr.o)
                              c:/program files/microchip/xc32/v2.41/bin/bin/../../lib/gcc/pic32c/6.2.1/../../../../pic32c/lib\libc_nano.a(lib_a-stdio.o) (_lseek_r)
c:/program files/microchip/xc32/v2.41/bin/bin/../../lib/gcc/pic32c/6.2.1/../../../../pic32c/lib\libc_nano.a(lib_a-mbtowc_r.o)
                              c:/program files/microchip/xc32/v2.41/bin/bin/../../lib/gcc/pic32c/6.2.1/../../../../pic32c/lib\libc_nano.a(lib_a-locale.o) (__ascii_mbtowc)
c:/program files/microchip/xc32/v2.41/bin/bin/../../lib/gcc/pic32c/6.2.1/../../../../pic32c/lib\libc_nano.a(lib_a-memchr-stub.o)
                              c:/program files/microchip/xc32/v2.41/bin/bin/../../lib/gcc/pic32c/6.2.1/../../../../pic32c/lib\libc_nano.a(lib_a-nano-svfprintf.o) (memchr)
c:/program files/microchip/xc32/v2.41/bin/bin/../../lib/gcc/pic32c/6.2.1/../../../../pic32c/lib\libc_nano.a(lib_a-memmove.o)
                              c:/program files/microchip/xc32/v2.41/bin/bin/../../lib/gcc/pic32c/6.2.1/../../../../pic32c/lib\libc_nano.a(lib_a-__ssputs.o) (memmove)
c:/program files/microchip/xc32/v2.41/bin/bin/../../lib/gcc/pic32c/6.2.1/../../../../pic32c/lib\libc_nano.a(lib_a-mprec.o)
                              c:/program files/microchip/xc32/v2.41/bin/bin/../../lib/gcc/pic32c/6.2.1/../../../../pic32c/lib\libc_nano.a(lib_a-dtoa.o) (_Balloc)
c:/program files/microchip/xc32/v2.41/bin/bin/../../lib/gcc/pic32c/6.2.1/../../../../pic32c/lib\libc_nano.a(lib_a-nano-callocr.o)
                              c:/program files/microchip/xc32/v2.41/bin/bin/../../lib/gcc/pic32c/6.2.1/../../../../pic32c/lib\libc_nano.a(lib_a-mprec.o) (_calloc_r)
c:/program files/microchip/xc32/v2.41/bin/bin/../../lib/gcc/pic32c/6.2.1/../../../../pic32c/lib\libc_nano.a(lib_a-nano-reallocr.o)
                              c:/program files/microchip/xc32/v2.41/bin/bin/../../lib/gcc/pic32c/6.2.1/../../../../pic32c/lib\libc_nano.a(lib_a-__ssputs.o) (_realloc_r)
c:/program files/microchip/xc32/v2.41/bin/bin/../../lib/gcc/pic32c/6.2.1/../../../../pic32c/lib\libc_nano.a(lib_a-readr.o)
                              c:/program files/microchip/xc32/v2.41/bin/bin/../../lib/gcc/pic32c/6.2.1/../../../../pic32c/lib\libc_nano.a(lib_a-stdio.o) (_read_r)
c:/program files/microchip/xc32/v2.41/bin/bin/../../lib/gcc/pic32c/6.2.1/../../../../pic32c/lib\libc_nano.a(lib_a-wcrtomb.o)
                              c:/program files/microchip/xc32/v2.41/bin/bin/../../lib/gcc/pic32c/6.2.1/../../../../pic32c/lib\libc_nano.a(lib_a-fputwc.o) (_wcrtomb_r)
c:/program files/microchip/xc32/v2.41/bin/bin/../../lib/gcc/pic32c/6.2.1/../../../../pic32c/lib\libc_nano.a(lib_a-wctomb_r.o)
                              c:/program files/microchip/xc32/v2.41/bin/bin/../../lib/gcc/pic32c/6.2.1/../../../../pic32c/lib\libc_nano.a(lib_a-locale.o) (__ascii_wctomb)
c:/program files/microchip/xc32/v2.41/bin/bin/../../lib/gcc/pic32c/6.2.1/../../../../pic32c/lib\libc_nano.a(lib_a-ctype_.o)
                              c:/program files/microchip/xc32/v2.41/bin/bin/../../lib/gcc/pic32c/6.2.1/../../../../pic32c/lib\libc_nano.a(lib_a-locale.o) (_ctype_)
c:/program files/microchip/xc32/v2.41/bin/bin/../../lib/gcc/pic32c/6.2.1/../../../../pic32c/lib\libc_nano.a(lib_a-nano-msizer.o)
                              c:/program files/microchip/xc32/v2.41/bin/bin/../../lib/gcc/pic32c/6.2.1/../../../../pic32c/lib\libc_nano.a(lib_a-nano-reallocr.o) (_malloc_usable_size_r)
c:/program files/microchip/xc32/v2.41/bin/bin/../../lib/gcc/pic32c/6.2.1/../../../../pic32c/lib\libpic32c.a(_close.o)
                              c:/program files/microchip/xc32/v2.41/bin/bin/../../lib/gcc/pic32c/6.2.1/../../../../pic32c/lib\libc_nano.a(lib_a-closer.o) (_close)
c:/program files/microchip/xc32/v2.41/bin/bin/../../lib/gcc/pic32c/6.2.1/../../../../pic32c/lib\libpic32c.a(_fstat.o)
                              c:/program files/microchip/xc32/v2.41/bin/bin/../../lib/gcc/pic32c/6.2.1/../../../../pic32c/lib\libc_nano.a(lib_a-fstatr.o) (_fstat)
c:/program files/microchip/xc32/v2.41/bin/bin/../../lib/gcc/pic32c/6.2.1/../../../../pic32c/lib\libpic32c.a(_isatty.o)
                              c:/program files/microchip/xc32/v2.41/bin/bin/../../lib/gcc/pic32c/6.2.1/../../../../pic32c/lib\libc_nano.a(lib_a-isattyr.o) (_isatty)
c:/program files/microchip/xc32/v2.41/bin/bin/../../lib/gcc/pic32c/6.2.1/../../../../pic32c/lib\libpic32c.a(_lseek.o)
                              c:/program files/microchip/xc32/v2.41/bin/bin/../../lib/gcc/pic32c/6.2.1/../../../../pic32c/lib\libc_nano.a(lib_a-lseekr.o) (_lseek)
c:/program files/microchip/xc32/v2.41/bin/bin/../../lib/gcc/pic32c/6.2.1/../../../../pic32c/lib\libpic32c.a(_read.o)
                              c:/program files/microchip/xc32/v2.41/bin/bin/../../lib/gcc/pic32c/6.2.1/../../../../pic32c/lib\libc_nano.a(lib_a-readr.o) (_read)
c:/program files/microchip/xc32/v2.41/bin/bin/../../lib/gcc/pic32c/6.2.1/../../../../pic32c/lib\libpic32c.a(sbrk.o)
                              c:/program files/microchip/xc32/v2.41/bin/bin/../../lib/gcc/pic32c/6.2.1/../../../../pic32c/lib\libc_nano.a(lib_a-sbrkr.o) (_sbrk)
c:/program files/microchip/xc32/v2.41/bin/bin/../../lib/gcc/pic32c/6.2.1/../../../../pic32c/lib\libpic32c.a(_write.o)
                              c:/program files/microchip/xc32/v2.41/bin/bin/../../lib/gcc/pic32c/6.2.1/../../../../pic32c/lib\libc_nano.a(lib_a-writer.o) (_write)
c:/program files/microchip/xc32/v2.41/bin/bin/../../lib/gcc/pic32c/6.2.1/../../../../pic32c/lib\libpic32c.a(close.o)
                              c:/program files/microchip/xc32/v2.41/bin/bin/../../lib/gcc/pic32c/6.2.1/../../../../pic32c/lib\libpic32c.a(_close.o) (close)
c:/program files/microchip/xc32/v2.41/bin/bin/../../lib/gcc/pic32c/6.2.1/../../../../pic32c/lib\libpic32c.a(fstat.o)
                              c:/program files/microchip/xc32/v2.41/bin/bin/../../lib/gcc/pic32c/6.2.1/../../../../pic32c/lib\libpic32c.a(_fstat.o) (fstat)
c:/program files/microchip/xc32/v2.41/bin/bin/../../lib/gcc/pic32c/6.2.1/../../../../pic32c/lib\libpic32c.a(isatty.o)
                              c:/program files/microchip/xc32/v2.41/bin/bin/../../lib/gcc/pic32c/6.2.1/../../../../pic32c/lib\libpic32c.a(_isatty.o) (isatty)
c:/program files/microchip/xc32/v2.41/bin/bin/../../lib/gcc/pic32c/6.2.1/../../../../pic32c/lib\libpic32c.a(lseek.o)
                              c:/program files/microchip/xc32/v2.41/bin/bin/../../lib/gcc/pic32c/6.2.1/../../../../pic32c/lib\libpic32c.a(_lseek.o) (lseek)
c:/program files/microchip/xc32/v2.41/bin/bin/../../lib/gcc/pic32c/6.2.1/../../../../pic32c/lib\libpic32c.a(read.o)
                              c:/program files/microchip/xc32/v2.41/bin/bin/../../lib/gcc/pic32c/6.2.1/../../../../pic32c/lib\libpic32c.a(_read.o) (read)
c:/program files/microchip/xc32/v2.41/bin/bin/../../lib/gcc/pic32c/6.2.1/../../../../pic32c/lib\libpic32c.a(write.o)
                              c:/program files/microchip/xc32/v2.41/bin/bin/../../lib/gcc/pic32c/6.2.1/../../../../pic32c/lib\libpic32c.a(_write.o) (write)
c:/program files/microchip/xc32/v2.41/bin/bin/../../lib/gcc/pic32c/6.2.1\libgcc.a(_thumb1_case_uqi.o)
                              c:/program files/microchip/xc32/v2.41/bin/bin/../../lib/gcc/pic32c/6.2.1/../../../../pic32c/lib\libc_nano.a(lib_a-dtoa.o) (__gnu_thumb1_case_uqi)
c:/program files/microchip/xc32/v2.41/bin/bin/../../lib/gcc/pic32c/6.2.1\libgcc.a(_arm_cmpdf2.o)
                              c:/program files/microchip/xc32/v2.41/bin/bin/../../lib/gcc/pic32c/6.2.1/../../../../pic32c/lib\libc_nano.a(_lib_a-nano-vfprintf.cdeEfFgGnopsuxX.o) (__aeabi_dcmpeq)
c:/program files/microchip/xc32/v2.41/bin/bin/../../lib/gcc/pic32c/6.2.1\libgcc.a(adddf3.o)
                              c:/program files/microchip/xc32/v2.41/bin/bin/../../lib/gcc/pic32c/6.2.1/../../../../pic32c/lib\libc_nano.a(lib_a-dtoa.o) (__aeabi_dadd)
c:/program files/microchip/xc32/v2.41/bin/bin/../../lib/gcc/pic32c/6.2.1\libgcc.a(divdf3.o)
                              c:/program files/microchip/xc32/v2.41/bin/bin/../../lib/gcc/pic32c/6.2.1/../../../../pic32c/lib\libc_nano.a(lib_a-dtoa.o) (__aeabi_ddiv)
c:/program files/microchip/xc32/v2.41/bin/bin/../../lib/gcc/pic32c/6.2.1\libgcc.a(eqdf2.o)
                              c:/program files/microchip/xc32/v2.41/bin/bin/../../lib/gcc/pic32c/6.2.1\libgcc.a(_arm_cmpdf2.o) (__eqdf2)
c:/program files/microchip/xc32/v2.41/bin/bin/../../lib/gcc/pic32c/6.2.1\libgcc.a(gedf2.o)
                              c:/program files/microchip/xc32/v2.41/bin/bin/../../lib/gcc/pic32c/6.2.1\libgcc.a(_arm_cmpdf2.o) (__gedf2)
c:/program files/microchip/xc32/v2.41/bin/bin/../../lib/gcc/pic32c/6.2.1\libgcc.a(ledf2.o)
                              c:/program files/microchip/xc32/v2.41/bin/bin/../../lib/gcc/pic32c/6.2.1\libgcc.a(_arm_cmpdf2.o) (__ledf2)
c:/program files/microchip/xc32/v2.41/bin/bin/../../lib/gcc/pic32c/6.2.1\libgcc.a(muldf3.o)
                              c:/program files/microchip/xc32/v2.41/bin/bin/../../lib/gcc/pic32c/6.2.1/../../../../pic32c/lib\libc_nano.a(lib_a-dtoa.o) (__aeabi_dmul)
c:/program files/microchip/xc32/v2.41/bin/bin/../../lib/gcc/pic32c/6.2.1\libgcc.a(subdf3.o)
                              c:/program files/microchip/xc32/v2.41/bin/bin/../../lib/gcc/pic32c/6.2.1/../../../../pic32c/lib\libc_nano.a(lib_a-dtoa.o) (__aeabi_dsub)
c:/program files/microchip/xc32/v2.41/bin/bin/../../lib/gcc/pic32c/6.2.1\libgcc.a(unorddf2.o)
                              c:/program files/microchip/xc32/v2.41/bin/bin/../../lib/gcc/pic32c/6.2.1/../../../../pic32c/lib\libc_nano.a(_lib_a-nano-vfprintf.cdeEfFgGnopsuxX.o) (__aeabi_dcmpun)
c:/program files/microchip/xc32/v2.41/bin/bin/../../lib/gcc/pic32c/6.2.1\libgcc.a(fixdfsi.o)
                              c:/program files/microchip/xc32/v2.41/bin/bin/../../lib/gcc/pic32c/6.2.1/../../../../pic32c/lib\libc_nano.a(lib_a-dtoa.o) (__aeabi_d2iz)
c:/program files/microchip/xc32/v2.41/bin/bin/../../lib/gcc/pic32c/6.2.1\libgcc.a(floatsidf.o)
                              c:/program files/microchip/xc32/v2.41/bin/bin/../../lib/gcc/pic32c/6.2.1/../../../../pic32c/lib\libc_nano.a(lib_a-dtoa.o) (__aeabi_i2d)
c:/program files/microchip/xc32/v2.41/bin/bin/../../lib/gcc/pic32c/6.2.1\libgcc.a(floatunsidf.o)
                              c:/program files/microchip/xc32/v2.41/bin/bin/../../lib/gcc/pic32c/6.2.1/../../../../pic32c/lib\libc_nano.a(lib_a-dtoa.o) (__aeabi_ui2d)
c:/program files/microchip/xc32/v2.41/bin/bin/../../lib/gcc/pic32c/6.2.1\libgcc.a(_thumb1_case_uhi.o)
                              c:/program files/microchip/xc32/v2.41/bin/bin/../../lib/gcc/pic32c/6.2.1\libgcc.a(divdf3.o) (__gnu_thumb1_case_uhi)

Allocating common symbols
Common symbol       size              file

errno               0x4               c:/program files/microchip/xc32/v2.41/bin/bin/../../lib/gcc/pic32c/6.2.1/../../../../pic32c/lib\libc_nano.a(lib_a-reent.o)
TC3_CallbackObject  0x8               build/default/production/_ext/829342655/plib_tc3.o
gSysFsMutex         0x1               build/default/production/_ext/1269487135/sys_fs.o
gDrvUSBObj          0x198             build/default/production/_ext/818654064/drv_usbfsv1.o
gSYSFSMediaObject   0x28              build/default/production/_ext/1269487135/sys_fs_media_manager.o
VolToPart           0x2               build/default/production/_ext/1269487135/sys_fs_media_manager.o
gUSBHostSCSIObj     0xc8              build/default/production/_ext/308758920/usb_host_scsi.o
gSYSFSMediaBuffer   0x200             build/default/production/_ext/1269487135/sys_fs_media_manager.o
appData             0xc               build/default/production/_ext/1360937237/app.o
gUSBHostMSDCBW      0x20              build/default/production/_ext/308758920/usb_host_msd.o
gUSBHostSCSIAttachListener
                    0xc               build/default/production/_ext/308758920/usb_host_scsi.o
gSYSFSFileObj       0x110             build/default/production/_ext/1269487135/sys_fs.o
gSYSFSDirObj        0x10              build/default/production/_ext/1269487135/sys_fs.o
gUSBSCSIBuffer      0x100             build/default/production/_ext/308758920/usb_host_scsi.o
gSYSFSCurrentMountPoint
                    0x8               build/default/production/_ext/1269487135/sys_fs.o
sysObj              0xc               build/default/production/_ext/1171490990/initialization.o
gUSBHostMSDInstance
                    0x64              build/default/production/_ext/308758920/usb_host_msd.o
gSYSFSObj           0x8               build/default/production/_ext/1269487135/sys_fs.o
gUSBHostMSDCSW      0x10              build/default/production/_ext/308758920/usb_host_msd.o
gSYSFSVolumeObject  0x1c              build/default/production/_ext/1269487135/sys_fs_media_manager.o
pipeDescriptorTable
                    0xe0              build/default/production/_ext/818654064/drv_usbfsv1_host.o
gDrvUSBHostPipeObj  0x1e0             build/default/production/_ext/818654064/drv_usbfsv1_host.o
errorValue          0x1               build/default/production/_ext/1269487135/sys_fs.o
gSYSFSMountPoint    0x10              build/default/production/_ext/1269487135/sys_fs.o

Microchip PIC32 Memory-Usage Report

ROM Program-Memory Usage
section                    address  length [bytes]      (dec)  Description
-------                 ----------  -------------------------  -----------
.vectors                         0           0xb0         176   
.text                         0xb0           0x20          32  App's exec code 
.ARM.exidx                    0xd0            0x8           8   
.text._dtoa_r                 0xd8          0xbbc        3004   
.text.f_mkfs                 0xc94          0x7c4        1988   
.text._USB_HOST_MakeDev     0x1458          0x7c0        1984   
.text                       0x1c18          0xb50        2896  App's exec code 
.text.__printf_float        0x2768          0x574        1396   
.text                       0x2cdc          0x544        1348  App's exec code 
.text._USB_HOST_SCSI_Ta     0x3220          0x52c        1324   
.text._DRV_USBFSV1_HOST     0x374c          0x4ec        1260   
.dinit                      0x3c38          0x4c0        1216   
.text.SYS_FS_MEDIA_MANA     0x40f8          0x448        1096   
.text                       0x4540          0x424        1060  App's exec code 
.text._DRV_USBFSV1_HOST     0x4964          0x408        1032   
.text.follow_path           0x4d6c          0x3fc        1020   
.text.mount_volume          0x5168          0x394         916   
.text._USB_HOST_UpdateC     0x54fc          0x344         836   
.text.USB_HOST_MSD_Tran     0x5840          0x30c         780   
.text._DRV_USBFSV1_HOST     0x5b4c          0x306         774   
.text._USB_HOST_MSD_Dei     0x5e52            0x2           2   
.text.f_printf              0x5e54          0x300         768   
.text.DRV_USBFSV1_HOST_     0x6154          0x2fc         764   
.text.dir_register          0x6450          0x2f8         760   
.text._USB_HOST_MSD_Tra     0x6748          0x2d4         724   
.text.APP_Tasks             0x6a1c          0x2d4         724   
.rodata                     0x6cf0          0x2c8         712  Read-only const 
.text.USB_HOST_SCSI_Tra     0x6fb8          0x25c         604   
.text.f_open                0x7214          0x254         596   
.text.___svfscanf_r_s       0x7468          0x248         584   
.text._printf_i             0x76b0          0x234         564   
.text._vfprintf_r           0x78e4          0x20c         524   
.rodata.cvt1.5686           0x7af0          0x1f4         500   
.text.f_write               0x7ce4          0x1d8         472   
.text.USB_HOST_MSD_Tran     0x7ebc          0x1c8         456   
.text._USB_HOST_UpdateI     0x8084          0x1c8         456   
.text._svfprintf_r          0x824c          0x1c8         456   
.text._USB_HOST_UpdateD     0x8414          0x1c0         448   
.text.SYS_FS_MEDIA_MANA     0x85d4          0x1b8         440   
.text.USB_HOST_DeviceEn     0x878c          0x1b0         432   
.text._USB_HOST_SCSI_De     0x893c          0x1ac         428   
.text._USB_HOST_DeviceC     0x8ae8          0x19c         412   
.text.dir_find              0x8c84          0x19c         412   
.text.f_read                0x8e20          0x19c         412   
.text.f_lseek               0x8fbc          0x196         406   
.text._USB_HOST_MSD_Rei     0x9152            0x2           2   
.text.USB_HOST_DevicePi     0x9154          0x194         404   
.text.get_fileinfo          0x92e8          0x190         400   
.text.SYS_FS_Mount          0x9478          0x18c         396   
.text.create_partition      0x9604          0x188         392   
.text.USB_HOST_DevicePi     0x978c          0x184         388   
.text.f_setlabel            0x9910          0x184         388   
.text._USB_HOST_MSD_Int     0x9a94          0x174         372   
.text._DRV_USBFSV1_HOST     0x9c08          0x172         370   
.text.USB_HOST_SCSI_Clo     0x9d7a            0x2           2   
.text.dir_read              0x9d7c          0x15c         348   
.text.setvbuf               0x9ed8          0x158         344   
.text.DRV_USBFSV1_Initi     0xa030          0x14c         332   
.text.f_getcwd              0xa17c          0x148         328   
.text.put_fat               0xa2c4          0x144         324   
.text.__srefill_r           0xa408          0x13c         316   
.text.USB_HOST_DeviceDe     0xa544          0x128         296   
.text.f_rename              0xa66c          0x124         292   
.text.USB_HOST_DeviceCo     0xa790          0x120         288   
.text.USB_HOST_DeviceTr     0xa8b0          0x120         288   
.text.SYS_FS_FileOpen       0xa9d0          0x120         288   
.text.__multiply            0xaaf0          0x11e         286   
.text.f_mkdir               0xac0e          0x11c         284   
.text.EVSYS_Initialize      0xad2a            0x2           2   
.text.DRV_USBFSV1_HOST_     0xad2c          0x118         280   
.text._DRV_USBFSV1_HOST     0xae44          0x118         280   
.text.__sflush_r            0xaf5c          0x114         276   
.text.create_chain          0xb070          0x10a         266   
.text.Dummy_Handler         0xb17a            0x2           2   
.text.USB_HOST_Tasks        0xb17c          0x108         264   
.text.quorem                0xb284          0x108         264   
.rodata._ctype_             0xb38c          0x101         257   
.rodata.uc437               0xb490          0x100         256   
.text.USB_HOST_DeviceEn     0xb590           0xfa         250   
.text.USB_HOST_DeviceIn     0xb68a           0xf8         248   
.text.USB_HOST_DeviceGe     0xb782           0xf6         246   
.text.SYS_FS_Unmount        0xb878           0xf0         240   
.text.DRV_USBFSV1_Tasks     0xb968           0xf0         240   
.text.__swsetup_r           0xba58           0xec         236   
.text._USB_HOST_SCSI_Tr     0xbb44           0xe8         232   
.text.f_getfree             0xbc2c           0xe8         232   
.text                       0xbd14           0xe2         226  App's exec code 
.text.NonMaskableInt_Ha     0xbdf6            0x2           2   
.text.SYS_TIME_AddToLis     0xbdf8           0xe0         224   
.text.SYS_TIME_PLIBCall     0xbed8           0xe0         224   
.text._USB_HOST_Configu     0xbfb8           0xe0         224   
.text.get_fat               0xc098           0xe0         224   
.text._DRV_USBFSV1_HOST     0xc178           0xe0         224   
.text._printf_common        0xc258           0xda         218   
.text.HardFault_Handler     0xc332            0x2           2   
.text._USB_HOST_MSD_Int     0xc334           0xd4         212   
.text.SYS_FS_GetDisk        0xc408           0xd0         208   
.text.dir_next              0xc4d8           0xd0         208   
.text._USB_HOST_DeviceC     0xc5a8           0xce         206   
.text.f_truncate            0xc676           0xcc         204   
.text.__malloc_lock         0xc742            0x2           2   
.text.__swbuf_r             0xc744           0xcc         204   
.text.CLOCK_Initialize      0xc810           0xc8         200   
.text.__mdiff               0xc8d8           0xc8         200   
.rodata.__mprec_tens        0xc9a0           0xc8         200   
.text.__ssputs_r            0xca68           0xc4         196   
.text.SYS_TIME_TimerObj     0xcb2c           0xc0         192   
.text._DRV_USBFSV1_HOST     0xcbec           0xc0         192   
.rodata.cvt2.5687           0xccac           0xbc         188   
.text.DRV_USBFSV1_HOST_     0xcd68           0xbc         188   
.text._malloc_r             0xce24           0xbc         188   
.text.f_unlink              0xcee0           0xba         186   
.text.__malloc_unlock       0xcf9a            0x2           2   
.text.ff_wtoupper           0xcf9c           0xb8         184   
.text.dir_sdi               0xd054           0xb0         176   
.rodata.gDrvUSBFSTableB     0xd104           0xb0         176   
.text                       0xd1b4           0xb0         176  App's exec code 
.text.SYS_TIME_Initiali     0xd264           0xac         172   
.text                       0xd310           0xa8         168  App's exec code 
.text.__d2b                 0xd3b8           0xa8         168   
.text.SYS_TIME_HwTimerC     0xd460           0xa4         164   
.text.f_getlabel            0xd504           0xa2         162   
.text.__lshift              0xd5a6           0xa2         162   
.text.__pow5mult            0xd648           0xa0         160   
.text                       0xd6e8           0xa0         160  App's exec code 
.text.FATFS_unmount         0xd788           0x9c         156   
.text.f_sync                0xd824           0x98         152   
.text.DRV_USBFSV1_HOST_     0xd8bc           0x98         152   
.text._DRV_USBFSV1_HOST     0xd954           0x98         152   
.text.USB_HOST_SCSI_Dei     0xd9ec           0x94         148   
.text.sync_fs               0xda80           0x94         148   
.text._DRV_USBFSV1_HOST     0xdb14           0x94         148   
.text._free_r               0xdba8           0x94         148   
.text.f_opendir             0xdc3c           0x92         146   
.text.__pic32c_data_ini     0xdcd0           0x90         144   
.text._DRV_USBFSV1_HOST     0xdd60           0x8e         142   
.text._USB_HOST_FindCla     0xddf0           0x8c         140   
.text                       0xde7c           0x8c         140  App's exec code 
.text._USB_HOST_MSD_Ins     0xdf08           0x88         136   
.rodata.FatFsFunctions      0xdf90           0x88         136   
.text.DRV_USBFSV1_Tasks     0xe018           0x88         136   
.text.remove_chain          0xe0a0           0x86         134   
.text.SYS_Initialize        0xe128           0x80         128   
.rodata.ExCvt               0xe1a8           0x80         128   
.text.__sfp                 0xe228           0x80         128   
.text.USB_HOST_Initiali     0xe2a8           0x7c         124   
.text.SYS_FS_FileWrite      0xe324           0x7c         124   
.text.check_fs              0xe3a0           0x7c         124   
.text.DRV_USBFSV1_HOST_     0xe41c           0x7c         124   
.text.__smakebuf_r          0xe498           0x7c         124   
.text.__fputwc              0xe514           0x7c         124   
.text                       0xe590           0x7c         124  App's exec code 
.text.SYS_FS_FileClose      0xe60c           0x78         120   
.text.SYS_FS_FileRead       0xe684           0x78         120   
.text.__multadd             0xe6fc           0x78         120   
.text.FATFS_mount           0xe774           0x74         116   
.text.inc_lock              0xe7e8           0x74         116   
.text                       0xe85c           0x74         116  App's exec code 
.text.SYS_FS_FileSize       0xe8d0           0x70         112   
.text._Balloc               0xe940           0x70         112   
.text                       0xe9b0           0x70         112  App's exec code 
.text._USB_HOST_SCSI_Bl     0xea20           0x6c         108   
.text.USB_HOST_DeviceIn     0xea8c           0x6c         108   
.text.f_mount               0xeaf8           0x6c         108   
.text.APP_SYSFSEventHan     0xeb64           0x68         104   
.text.__sinit               0xebcc           0x68         104   
.text                       0xec34           0x68         104  App's exec code 
.text.SYS_FS_MEDIA_MANA     0xec9c           0x64         100   
.text                       0xed00           0x64         100  App's exec code 
.text.__sccl                0xed64           0x62          98   
.text.SYS_TIME_TimerSta     0xedc8           0x60          96   
.text.SYS_FS_MEDIA_MANA     0xee28           0x60          96   
.text.FATFS_open            0xee88           0x60          96   
.text.f_chdir               0xeee8           0x5e          94   
.text.__lo0bits             0xef46           0x5e          94   
.text.SYS_FS_Initialize     0xefa4           0x5c          92   
.text.chk_lock              0xf000           0x5c          92   
.text.dir_clear             0xf05c           0x5c          92   
.rodata.f_printf            0xf0b8           0x5c          92   
.text.f_chmod               0xf114           0x5a          90   
.text.f_gets                0xf16e           0x5a          90   
.text.Reset_Handler         0xf1c8           0x58          88   
.text.SYS_TIME_RemoveFr     0xf220           0x58          88   
.text.SYS_TIME_Callback     0xf278           0x58          88   
.text._SYS_FS_MEDIA_MAN     0xf2d0           0x58          88   
.text.get_ldnumber          0xf328           0x58          88   
.text.f_utime               0xf380           0x58          88   
.text._fflush_r             0xf3d8           0x58          88   
.text._vfscanf_s            0xf430           0x58          88   
.text.SYS_TIME_DelayMS      0xf488           0x54          84   
.text.dir_remove            0xf4dc           0x54          84   
.rodata                     0xf530           0x54          84  Read-only const 
.text.__swhatbuf_r          0xf584           0x50          80   
.text.sync_window           0xf5d4           0x4c          76   
.text.dir_alloc             0xf620           0x4c          76   
.text.APP_USBHostEventH     0xf66c           0x4c          76   
.text._realloc_r            0xf6b8           0x4c          76   
.text._wcrtomb_r            0xf704           0x4c          76   
.text.USB_HOST_DeviceIA     0xf750           0x4a          74   
.text.f_readdir             0xf79a           0x4a          74   
.text                       0xf7e4           0x48          72  App's exec code 
.text.USB_HOST_DevicePi     0xf82c           0x48          72   
.text._USB_HOST_UpdateD     0xf874           0x48          72   
.text.ff_uni2oem            0xf8bc           0x48          72   
.text.DRV_USBFSV1_HOST_     0xf904           0x48          72   
.text.__libc_init_array     0xf94c           0x48          72   
.text.sprintf               0xf994           0x48          72   
.text.std.isra.0            0xf9dc           0x48          72   
.text.__ssfputs_r           0xfa24           0x48          72   
.rodata                     0xfa6c           0x45          69  Read-only const 
.text.SYS_TIME_TimerAdd     0xfab4           0x44          68   
.text._USB_HOST_FreeAdd     0xfaf8           0x44          68   
.text.f_stat                0xfb3c           0x44          68   
.text.disk_ioctl            0xfb80           0x44          68   
.text                       0xfbc4           0x42          66  App's exec code 
.text._fwalk_reent          0xfc06           0x42          66   
.text.PORT_Initialize       0xfc48           0x40          64   
.text.NVIC_Initialize       0xfc88           0x40          64   
.text.SERCOM5_USART_Rea     0xfcc8           0x40          64   
.text.TC3_TimerInitiali     0xfd08           0x40          64   
.text.SYS_TIME_GetTimer     0xfd48           0x40          64   
.text._USB_HOST_Release     0xfd88           0x40          64   
.rodata._USB_HOST_MakeD     0xfdc8           0x40          64   
.text._USB_HOST_DataTra     0xfe08           0x40          64   
.rodata.SYS_FS_MEDIA_MA     0xfe48           0x40          64   
.text.SYS_FS_MEDIA_MANA     0xfe88           0x40          64   
.text.SYS_FS_MEDIA_MANA     0xfec8           0x40          64   
.text.dec_lock              0xff08           0x40          64   
.text                       0xff48           0x40          64  App's exec code 
.text.write                 0xff88           0x40          64   
.text.SYS_TIME_TimerDes     0xffc8           0x3e          62   
.rodata._USB_HOST_SCSI_    0x10008           0x3c          60   
.text._USB_HOST_NoInter    0x10044           0x3c          60   
.text.USB_HOST_BusEnabl    0x10080           0x3c          60   
.text.FATFS_getclusters    0x100bc           0x3c          60   
.text.putc_bfd             0x100f8           0x3c          60   
.text.putc_flush           0x10134           0x3c          60   
.text.SYS_INT_SourceDis    0x10170           0x3c          60   
.text                      0x101ac           0x3c          60  App's exec code 
.text.USB_HOST_SCSI_Ini    0x101e8           0x38          56   
.text.SERCOM5_USART_Ini    0x10220           0x38          56   
.text.SYS_TIME_UpdateTi    0x10258           0x38          56   
.text.USB_HOST_DeviceCo    0x10290           0x38          56   
.text.SYS_FS_MEDIA_MANA    0x102c8           0x38          56   
.text.disk_checkCommand    0x10300           0x38          56   
.rodata.APP_Tasks          0x10338           0x38          56   
.text._fwalk               0x10370           0x38          56   
.text.__swrite             0x103a8           0x38          56   
.text.validate             0x103e0           0x36          54   
.text.move_window          0x10416           0x36          54   
.text._USB_HOST_MSD_Int    0x1044c           0x34          52   
.rodata.USB_HOST_MSD_Tr    0x10480           0x34          52   
.text.SERCOM5_USART_Wri    0x104b4           0x34          52   
.text.SYS_TIME_Resource    0x104e8           0x34          52   
.text.USB_HOST_BusIsEna    0x1051c           0x34          52   
.text.printf               0x10550           0x34          52   
.text.__hi0bits            0x10584           0x34          52   
.text                      0x105b8           0x34          52  App's exec code 
.text.f_fdisk              0x105ec           0x32          50   
.text.f_puts               0x1061e           0x32          50   
.text._Bfree               0x10650           0x32          50   
.text.__mcmp               0x10682           0x32          50   
.text.USB_HOST_SCSI_Ope    0x106b4           0x30          48   
.text.SERCOM5_USART_Err    0x106e4           0x30          48   
.text.SYS_TIME_Resource    0x10714           0x30          48   
.text._USB_HOST_IRPResu    0x10744           0x30          48   
.text.FATFS_opendir        0x10774           0x30          48   
.text.ff_oem2uni           0x107a4           0x30          48   
.text.disk_write           0x107d4           0x30          48   
.text.DRV_USBFSV1_HOST_    0x10804           0x30          48   
.text._DRV_USBFSV1_HOST    0x10834           0x30          48   
.text._sbrk                0x10864           0x30          48   
.text._USB_HOST_FindEnd    0x10894           0x2e          46   
.text.f_close              0x108c2           0x2e          46   
.text.f_closedir           0x108f0           0x2c          44   
.text.DRV_USBFSV1_Open     0x1091c           0x2c          44   
.text.__sfmoreglue         0x10948           0x2c          44   
.text.__sseek              0x10974           0x2c          44   
.text.read                 0x109a0           0x2c          44   
.text.SYS_TIME_TimerPer    0x109cc           0x2a          42   
.text.strncpy              0x109f6           0x2a          42   
.text.__sfputc_r           0x10a20           0x2a          42   
.text._USB_HOST_MSD_Ini    0x10a4c           0x28          40   
.text.disk_read            0x10a74           0x28          40   
.text.DRV_USBFSV1_HOST_    0x10a9c           0x28          40   
.text.fflush               0x10ac4           0x28          40   
.text.__sread              0x10aec           0x28          40   
.text._write_r             0x10b14           0x28          40   
.text._lseek_r             0x10b3c           0x28          40   
.text.FATFS_tell           0x10b64            0x4           4   
.rodata.__mprec_bigtens    0x10b68           0x28          40   
.text._read_r              0x10b90           0x28          40   
.text.FATFS_mkfs           0x10bb8           0x26          38   
.text.f_putc               0x10bde           0x26          38   
.text.USB_HOST_SCSI_Med    0x10c04           0x24          36   
.rodata.drvUSBInit         0x10c28           0x24          36   
.text.TC3_TimerInterrup    0x10c4c           0x24          36   
.text.SYS_TIME_GetElaps    0x10c70           0x24          36   
.text.SYS_FS_MEDIA_MANA    0x10c94           0x24          36   
.text.SYS_FS_MEDIA_MANA    0x10cb8           0x24          36   
.text.tchar2uni            0x10cdc           0x24          36   
.text.f_chdrive            0x10d00           0x24          36   
.rodata.ff_wtoupper        0x10d24           0x24          36   
.text.diskEventHandler     0x10d48           0x24          36   
.text.APP_Initialize       0x10d6c           0x24          36   
.text._sbrk_r              0x10d90           0x24          36   
.text._close_r             0x10db4           0x24          36   
.text._fstat_r             0x10dd8           0x24          36   
.text._isatty_r            0x10dfc           0x24          36   
.text.__ascii_mbtowc       0x10e20           0x24          36   
.text.memmove              0x10e44           0x24          36   
.text.USB_HOST_SCSI_Med    0x10e68           0x22          34   
.text.ld_clust             0x10e8a           0x22          34   
.text.strncmp              0x10eac           0x22          34   
.rodata                    0x10ece           0x22          34  Read-only const 
.text._USB_HOST_MSD_Int    0x10ef0           0x20          32   
.text._USB_HOST_SCSI_LU    0x10f10           0x20          32   
.rodata.USB_HOST_SCSI_T    0x10f30           0x20          32   
.text.TC3_Timer16bitCou    0x10f50           0x20          32   
.rodata._USB_HOST_Updat    0x10f70           0x20          32   
.text.SYS_FS_MEDIA_MANA    0x10f90           0x20          32   
.rodata                    0x10fb0           0x20          32  Read-only const 
.text.DRV_USBFSV1_HOST_    0x10fd0           0x20          32   
.text.DRV_USBFSV1_HOST_    0x10ff0           0x20          32   
.rodata.gDrvUSBLSTableB    0x11010           0x20          32   
.text.SYS_Tasks            0x11030           0x20          32   
.text._scanf_s             0x11050           0x20          32   
.rodata.__sf_fake_stder    0x11070           0x20          32   
.rodata.__sf_fake_stdin    0x11090           0x20          32   
.rodata.__sf_fake_stdou    0x110b0           0x20          32   
.text.FATFS_close          0x110d0           0x1e          30   
.text.FATFS_readdir        0x110ee           0x1e          30   
.text.FATFS_closedir       0x1110c           0x1e          30   
.text._fputwc_r            0x1112a           0x1e          30   
.text._USB_HOST_MSD_Hos    0x11148           0x1c          28   
.rodata                    0x11164           0x1c          28  Read-only const 
.rodata.sysTimePlibAPI     0x11180           0x1c          28   
.text.SYS_TIME_Counter6    0x1119c           0x1c          28   
.text.FATFS_stat           0x111b8           0x1c          28   
.text.FATFS_chdrive        0x111d4           0x1c          28   
.text.sum_sfn              0x111f0           0x1c          28   
.text.DRV_USBFSV1_HOST_    0x1120c           0x1c          28   
.rodata._DRV_USBFSV1_HO    0x11228           0x1c          28   
.text.__locale_mb_cur_m    0x11244           0x1c          28   
.text.__locale_ctype_pt    0x11260           0x1c          28   
.text._calloc_r            0x1127c           0x1c          28   
.text._USB_HOST_SCSI_Ti    0x11298           0x1a          26   
.text._USB_HOST_SCSI_Re    0x112b2           0x1a          26   
.text._mon_getc            0x112cc           0x1a          26   
.text._mon_putc            0x112e6           0x1a          26   
.text.mem_cmp              0x11300           0x1a          26   
.text.DRV_USBFSV1_HOST_    0x1131a           0x1a          26   
.text.DRV_USBFSV1_HOST_    0x11334           0x1a          26   
.text.USB_HOST_SCSI_Sec    0x1134e           0x18          24   
.text.USB_HOST_SCSI_Sec    0x11366           0x18          24   
.text._USB_HOST_SCSI_Mo    0x1137e           0x18          24   
.text.TC3_TimerStart       0x11398           0x18          24   
.text.TC3_TimerStop        0x113b0           0x18          24   
.text.SYS_TIME_DelayIsC    0x113c8           0x18          24   
.text._USB_HOST_TimerCa    0x113e0           0x18          24   
.text._USB_HOST_RootHub    0x113f8           0x18          24   
.text._USB_HOST_RootHub    0x11410           0x18          24   
.text._USB_HOST_GetNewA    0x11428           0x18          24   
.text.SYS_FS_MEDIA_MANA    0x11440           0x18          24   
.rodata.FATFS_open         0x11458           0x18          24   
.text.clst2sect            0x11470           0x18          24   
.text.st_clust             0x11488           0x18          24   
.text                      0x114a0           0x48          72  App's exec code 
.text.lflush               0x114e8           0x18          24   
.text._localeconv_r        0x11500           0x18          24   
.text.__ascii_wctomb       0x11518           0x18          24   
.text.USB_HOST_SCSI_Eve    0x11530           0x16          22   
.text.ld_dword             0x11546           0x16          22   
.text.DRV_USBFSV1_Close    0x1155c           0x16          22   
.text.memchr               0x11572           0x16          22   
.text._USB_HOST_SCSI_Re    0x11588           0x14          20   
.text._USB_HOST_SCSI_In    0x1159c           0x14          20   
.text.TC3_Timer16bitPer    0x115b0           0x14          20   
.text.TC3_Timer16bitCom    0x115c4           0x14          20   
.rodata._USB_HOST_Devic    0x115d8           0x14          20   
.rodata.SYS_FS_MEDIA_MA    0x115ec           0x14          20   
.text.mem_cpy              0x11600           0x14          20   
.rodata.badchr.6388        0x11614           0x14          20   
.text.SYS_INT_Restore      0x11628           0x14          20   
.text.malloc               0x1163c           0x14          20   
.text.free                 0x11650           0x14          20   
.text                      0x11664           0x3c          60  App's exec code 
.text.DRV_USBFSV1_Clien    0x116a0           0x12          18   
.text.DRV_USBFSV1_HOST_    0x116b2           0x12          18   
.text.SYS_INT_Disable      0x116c4           0x12          18   
.text.memcpy               0x116d6           0x12          18   
.text.setbuf               0x116e8           0x12          18   
.text.__i2b                0x116fa           0x12          18   
.rodata                    0x1170c           0x22          34  Read-only const 
.text._USB_HOST_MSD_Con    0x1172e           0x10          16   
.text._USB_HOST_SCSI_Co    0x1173e           0x10          16   
.text._USB_HOST_SCSI_Te    0x1174e           0x10          16   
.text.USB_HOST_SCSI_Tas    0x1175e           0x10          16   
.rodata.USBTPList          0x11770           0x10          16   
.text.USB_HOST_EventHan    0x11780           0x10          16   
.text.st_dword             0x11790           0x10          16   
.rodata.LfnOfs             0x117a0           0x10          16   
.rodata.cst.6425           0x117b0           0x10          16   
.rodata.cst32.6426         0x117c0           0x10          16   
.rodata.defopt.6427        0x117d0           0x10          16   
.text.disk_initialize      0x117e0           0x10          16   
.text.DRV_USBFSV1_USB_H    0x117f0           0x10          16   
.text.memset               0x11800           0x10          16   
.text._cleanup_r           0x11810           0x10          16   
.text._malloc_usable_si    0x11820           0x10          16   
.rodata                    0x11830            0xf          15  Read-only const 
.text.main                 0x11840            0xe          14   
.text.FATFS_eof            0x1184e            0xe          14   
.text.mem_set              0x1185c            0xe          14   
.text.DRV_USBFSV1_HOST_    0x1186a            0xe          14   
.text                      0x11878            0xe          14  App's exec code 
.text.NVMCTRL_Initializ    0x11888            0xc          12   
.rodata.sysfsMountTable    0x11894            0xc          12   
.text.TC3_TimerCallback    0x118a0            0xc          12   
.rodata.usbHostInitData    0x118ac            0xc          12   
.text.SYS_FS_MEDIA_MANA    0x118b8            0xc          12   
.text.__sclose             0x118c4            0xc          12   
.rodata.p05.6081           0x118d0            0xc          12   
.text.fstat                0x118dc            0xc          12   
.rodata                    0x118e8            0xb          11  Read-only const 
.text.USB_HOST_DeviceEn    0x118f4            0xa          10   
.text.SYS_FS_MEDIA_MANA    0x118fe            0xa          10   
.text.FATFS_read           0x11908            0xa          10   
.text.FATFS_lseek          0x11912            0xa          10   
.text.FATFS_gets           0x1191c            0xa          10   
.text.FATFS_write          0x11926            0xa          10   
.text.FATFS_truncate       0x11930            0xa          10   
.text.FATFS_sync           0x1193a            0xa          10   
.text.FATFS_putc           0x11944            0xa          10   
.text.FATFS_puts           0x1194e            0xa          10   
.text.FATFS_printf         0x11958            0xa          10   
.text.FATFS_error          0x11962            0xa          10   
.text._USB_HOST_MSD_Int    0x1196c            0x8           8   
.rodata.sysFSInit          0x11974            0x8           8   
.rodata.sysTimeInitData    0x1197c            0x8           8   
.text.TC3_TimerFrequenc    0x11984            0x8           8   
.rodata.hcdTable           0x1198c            0x8           8   
.text.SYS_FS_Tasks         0x11994            0x8           8   
.text.SYS_FS_EventHandl    0x1199c            0x8           8   
.rodata                    0x119a4            0x8           8  Read-only const 
.rodata.gPartitionTypeO    0x119ac            0x8           8   
.text.FATFS_getlabel       0x119b4            0x8           8   
.text.FATFS_getcwd         0x119bc            0x8           8   
.text.FATFS_chdir          0x119c4            0x8           8   
.text.FATFS_mkdir          0x119cc            0x8           8   
.text.FATFS_unlink         0x119d4            0x8           8   
.text.FATFS_setlabel       0x119dc            0x8           8   
.text.FATFS_chmod          0x119e4            0x8           8   
.text.FATFS_utime          0x119ec            0x8           8   
.text.FATFS_rename         0x119f4            0x8           8   
.text.FATFS_fdisk          0x119fc            0x8           8   
.text.get_fattime          0x11a04            0x8           8   
.text.SYS_INT_Enable       0x11a0c            0x8           8   
.text._close               0x11a14            0x8           8   
.text._fstat               0x11a1c            0x8           8   
.text._isatty              0x11a24            0x8           8   
.text._lseek               0x11a2c            0x8           8   
.text._read                0x11a34            0x8           8   
.text._write               0x11a3c            0x8           8   
.text.close                0x11a44            0x8           8   
.text.DRV_USBFSV1_HOST_    0x11a4c            0x6           6   
.text.FATFS_size           0x11a52            0x4           4   
.text.disk_status          0x11a56            0x4           4   
.text.DRV_USBFSV1_HOST_    0x11a5a            0x4           4   
.text.DRV_USBFSV1_HOST_    0x11a5e            0x4           4   
.text                      0x11a64            0x4           4  App's exec code 
.rodata._global_impure_    0x11a68            0x4           4   
.rodata                    0x11a6c            0x4           4  Read-only const 
.text.isatty               0x11a70            0x4           4   
.text.lseek                0x11a74            0x4           4   
      Total ROM used  :     0x11a5c       72284  27.6% of 0x40000
        --------------------------------------------------------------------------
         Total Program Memory used  :     0x11a5c       72284  27.6% of 0x40000
        --------------------------------------------------------------------------


RAM Data-Memory Usage
section                    address  length [bytes]      (dec)  Description
-------                 ----------  -------------------------  -----------
.bss                    0x20000000          0xa74        2676  Uninitialized data 
.bss.gSYSFSMediaBlockBu 0x20000a74          0x800        2048   
.bss.gUSBHostDeviceList 0x20001274          0x348         840   
.bss.gUSBHostTransferOb 0x200015bc          0x280         640   
.bss.FATFSVolume        0x2000183c          0x23c         572   
.bss.FATFSFileObject    0x20001a78          0x230         560   
.bss.LfnBuf             0x20001ca8          0x200         512   
.data.__global_locale   0x20001ea8          0x16c         364   
.bss.timers             0x20002014           0xa0         160   
.bss.gUSBHostPipeObj    0x200020b4           0xa0         160   
.data.impure_data       0x20002154           0x60          96   
.data.gDrvUSBFSV1HostIn 0x200021b4           0x54          84   
.bss.gUSBHostBusList    0x20002208           0x48          72   
.bss.gSystemCounterObj  0x20002250           0x38          56   
.bss.FATFSDirObject     0x20002288           0x38          56   
.data.gUSBHostMSDSCSIMe 0x200022c0           0x30          48   
.data.gUSBHostMSDClient 0x200022f0           0x2c          44   
.bss                    0x2000231c           0x1c          28  Uninitialized data 
.data.gSYSFSMediaManage 0x20002338           0x18          24   
.bss.gUSBHostObj        0x20002350           0x14          20   
.data.gSYSFSVolumeName  0x20002364           0x14          20   
.bss.Files              0x20002378           0x10          16   
.bss.gSYSFSEventHandler 0x20002388            0x8           8   
.bss.gSysFsDiskData     0x20002390            0x8           8   
.bss.FatFs              0x20002398            0x4           4   
.data._impure_ptr       0x2000239c            0x4           4   
.bss.__malloc_free_list 0x200023a0            0x4           4   
.bss.__malloc_sbrk_star 0x200023a4            0x4           4   
.bss                    0x200023a8            0x4           4  Uninitialized data 
.data.gSysTimeTokenCoun 0x200023ac            0x2           2   
.bss.Fsid               0x200023ae            0x2           2   
.bss.gNumOfFSClients    0x200023b0            0x1           1   
.bss.startupflag        0x200023b1            0x1           1   
.bss.CurrVol            0x200023b2            0x1           1   
         Total RAM used  :      0x23b3        9139  27.9% of 0x8000
        --------------------------------------------------------------------------
            Total Data Memory used  :      0x23b3        9139  27.9% of 0x8000
        --------------------------------------------------------------------------


Dynamic Data-Memory Reservation
section                    address  length [bytes]      (dec)  Description
-------                 ----------  -------------------------  -----------
heap                    0x200023b8          0x200         512  Reserved for heap 
stack                   0x200025d0         0x5a20       23072  Reserved for stack 

        --------------------------------------------------------------------------

Discarded input sections

 .text          0x00000000        0x0 c:/program files/microchip/xc32/v2.41/bin/bin/../../lib/gcc/pic32c/6.2.1/crti.o
 .data          0x00000000        0x0 c:/program files/microchip/xc32/v2.41/bin/bin/../../lib/gcc/pic32c/6.2.1/crti.o
 .bss           0x00000000        0x0 c:/program files/microchip/xc32/v2.41/bin/bin/../../lib/gcc/pic32c/6.2.1/crti.o
 .data          0x00000000        0x4 c:/program files/microchip/xc32/v2.41/bin/bin/../../lib/gcc/pic32c/6.2.1/crtbegin.o
 .text          0x00000000        0x0 build/default/production/_ext/1593096446/plib_nvmctrl.o
 .data          0x00000000        0x0 build/default/production/_ext/1593096446/plib_nvmctrl.o
 .bss           0x00000000        0x0 build/default/production/_ext/1593096446/plib_nvmctrl.o
 .text.NVMCTRL_CacheInvalidate
                0x00000000       0x10 build/default/production/_ext/1593096446/plib_nvmctrl.o
 .text.NVMCTRL_Read
                0x00000000       0x10 build/default/production/_ext/1593096446/plib_nvmctrl.o
 .text.NVMCTRL_PageWrite
                0x00000000       0x34 build/default/production/_ext/1593096446/plib_nvmctrl.o
 .text.NVMCTRL_RowErase
                0x00000000       0x20 build/default/production/_ext/1593096446/plib_nvmctrl.o
 .text.NVMCTRL_ErrorGet
                0x00000000       0x18 build/default/production/_ext/1593096446/plib_nvmctrl.o
 .text.NVMCTRL_IsBusy
                0x00000000       0x14 build/default/production/_ext/1593096446/plib_nvmctrl.o
 .text.NVMCTRL_RegionLock
                0x00000000       0x20 build/default/production/_ext/1593096446/plib_nvmctrl.o
 .text.NVMCTRL_RegionUnlock
                0x00000000       0x20 build/default/production/_ext/1593096446/plib_nvmctrl.o
 .bss.status    0x00000000        0x4 build/default/production/_ext/1593096446/plib_nvmctrl.o
 .text          0x00000000        0x0 build/default/production/_ext/308758920/usb_host_msd.o
 .data          0x00000000        0x0 build/default/production/_ext/308758920/usb_host_msd.o
 .bss           0x00000000        0x0 build/default/production/_ext/308758920/usb_host_msd.o
 .text._USB_HOST_MSD_GetMaxLUNPacketCreate
                0x00000000       0x1e build/default/production/_ext/308758920/usb_host_msd.o
 .text._USB_HOST_MSD_ResetPacketCreate
                0x00000000       0x1a build/default/production/_ext/308758920/usb_host_msd.o
 .text          0x00000000        0x0 build/default/production/_ext/308758920/usb_host_scsi.o
 .data          0x00000000        0x0 build/default/production/_ext/308758920/usb_host_scsi.o
 .bss           0x00000000        0x0 build/default/production/_ext/308758920/usb_host_scsi.o
 .text.USB_HOST_SCSI_MSDLUNHandleGet
                0x00000000       0x20 build/default/production/_ext/308758920/usb_host_scsi.o
 .text.USB_HOST_SCSI_AttachEventHandlerSet
                0x00000000       0x2c build/default/production/_ext/308758920/usb_host_scsi.o
 .text          0x00000000        0x0 build/default/production/_ext/1986646378/plib_evsys.o
 .data          0x00000000        0x0 build/default/production/_ext/1986646378/plib_evsys.o
 .bss           0x00000000        0x0 build/default/production/_ext/1986646378/plib_evsys.o
 .text          0x00000000        0x0 build/default/production/_ext/1360937237/main.o
 .data          0x00000000        0x0 build/default/production/_ext/1360937237/main.o
 .bss           0x00000000        0x0 build/default/production/_ext/1360937237/main.o
 .text          0x00000000        0x0 build/default/production/_ext/1171490990/initialization.o
 .data          0x00000000        0x0 build/default/production/_ext/1171490990/initialization.o
 .bss           0x00000000        0x0 build/default/production/_ext/1171490990/initialization.o
 .text          0x00000000        0x0 build/default/production/_ext/1171490990/interrupts.o
 .data          0x00000000        0x0 build/default/production/_ext/1171490990/interrupts.o
 .bss           0x00000000        0x0 build/default/production/_ext/1171490990/interrupts.o
 .text          0x00000000        0x0 build/default/production/_ext/1171490990/exceptions.o
 .data          0x00000000        0x0 build/default/production/_ext/1171490990/exceptions.o
 .bss           0x00000000        0x0 build/default/production/_ext/1171490990/exceptions.o
 .text          0x00000000        0x0 build/default/production/_ext/163028504/xc32_monitor.o
 .data          0x00000000        0x0 build/default/production/_ext/163028504/xc32_monitor.o
 .bss           0x00000000        0x0 build/default/production/_ext/163028504/xc32_monitor.o
 .text          0x00000000        0x0 build/default/production/_ext/1865521619/plib_port.o
 .data          0x00000000        0x0 build/default/production/_ext/1865521619/plib_port.o
 .bss           0x00000000        0x0 build/default/production/_ext/1865521619/plib_port.o
 .text.PORT_GroupRead
                0x00000000        0x4 build/default/production/_ext/1865521619/plib_port.o
 .text.PORT_GroupWrite
                0x00000000        0xc build/default/production/_ext/1865521619/plib_port.o
 .text.PORT_GroupLatchRead
                0x00000000        0x4 build/default/production/_ext/1865521619/plib_port.o
 .text.PORT_GroupSet
                0x00000000        0x4 build/default/production/_ext/1865521619/plib_port.o
 .text.PORT_GroupClear
                0x00000000        0x4 build/default/production/_ext/1865521619/plib_port.o
 .text.PORT_GroupToggle
                0x00000000        0x4 build/default/production/_ext/1865521619/plib_port.o
 .text.PORT_GroupInputEnable
                0x00000000        0x4 build/default/production/_ext/1865521619/plib_port.o
 .text.PORT_GroupOutputEnable
                0x00000000        0x4 build/default/production/_ext/1865521619/plib_port.o
 .text          0x00000000        0x0 build/default/production/_ext/1984496892/plib_clock.o
 .data          0x00000000        0x0 build/default/production/_ext/1984496892/plib_clock.o
 .bss           0x00000000        0x0 build/default/production/_ext/1984496892/plib_clock.o
 .text          0x00000000        0x0 build/default/production/_ext/1865468468/plib_nvic.o
 .data          0x00000000        0x0 build/default/production/_ext/1865468468/plib_nvic.o
 .bss           0x00000000        0x0 build/default/production/_ext/1865468468/plib_nvic.o
 .text          0x00000000        0x0 build/default/production/_ext/1171490990/startup_xc32.o
 .data          0x00000000        0x0 build/default/production/_ext/1171490990/startup_xc32.o
 .bss           0x00000000        0x0 build/default/production/_ext/1171490990/startup_xc32.o
 .text          0x00000000        0x0 build/default/production/_ext/1171490990/libc_syscalls.o
 .data          0x00000000        0x0 build/default/production/_ext/1171490990/libc_syscalls.o
 .bss           0x00000000        0x0 build/default/production/_ext/1171490990/libc_syscalls.o
 .text._exit    0x00000000        0x2 build/default/production/_ext/1171490990/libc_syscalls.o
 .debug_info    0x00000000      0xe8a build/default/production/_ext/1171490990/libc_syscalls.o
 .debug_abbrev  0x00000000      0x1a1 build/default/production/_ext/1171490990/libc_syscalls.o
 .debug_aranges
                0x00000000       0x20 build/default/production/_ext/1171490990/libc_syscalls.o
 .debug_ranges  0x00000000       0x10 build/default/production/_ext/1171490990/libc_syscalls.o
 .debug_line    0x00000000      0x13d build/default/production/_ext/1171490990/libc_syscalls.o
 .debug_str     0x00000000        0xe build/default/production/_ext/1171490990/libc_syscalls.o
 .comment       0x00000000       0x3d build/default/production/_ext/1171490990/libc_syscalls.o
 .debug_frame   0x00000000       0x20 build/default/production/_ext/1171490990/libc_syscalls.o
 .ARM.attributes
                0x00000000       0x32 build/default/production/_ext/1171490990/libc_syscalls.o
 .text          0x00000000        0x0 build/default/production/_ext/504274921/plib_sercom5_usart.o
 .data          0x00000000        0x0 build/default/production/_ext/504274921/plib_sercom5_usart.o
 .bss           0x00000000        0x0 build/default/production/_ext/504274921/plib_sercom5_usart.o
 .text.SERCOM5_USART_FrequencyGet
                0x00000000        0x8 build/default/production/_ext/504274921/plib_sercom5_usart.o
 .text.SERCOM5_USART_SerialSetup
                0x00000000      0x118 build/default/production/_ext/504274921/plib_sercom5_usart.o
 .text.SERCOM5_USART_TransmitterEnable
                0x00000000       0x18 build/default/production/_ext/504274921/plib_sercom5_usart.o
 .text.SERCOM5_USART_TransmitterDisable
                0x00000000       0x1c build/default/production/_ext/504274921/plib_sercom5_usart.o
 .text.SERCOM5_USART_TransmitterIsReady
                0x00000000       0x10 build/default/production/_ext/504274921/plib_sercom5_usart.o
 .text.SERCOM5_USART_TransmitComplete
                0x00000000       0x10 build/default/production/_ext/504274921/plib_sercom5_usart.o
 .text.SERCOM5_USART_WriteByte
                0x00000000       0x18 build/default/production/_ext/504274921/plib_sercom5_usart.o
 .text.SERCOM5_USART_ReceiverEnable
                0x00000000       0x18 build/default/production/_ext/504274921/plib_sercom5_usart.o
 .text.SERCOM5_USART_ReceiverDisable
                0x00000000       0x1c build/default/production/_ext/504274921/plib_sercom5_usart.o
 .text.SERCOM5_USART_ReceiverIsReady
                0x00000000       0x10 build/default/production/_ext/504274921/plib_sercom5_usart.o
 .text.SERCOM5_USART_ReadByte
                0x00000000        0xc build/default/production/_ext/504274921/plib_sercom5_usart.o
 .text          0x00000000        0x0 build/default/production/_ext/829342655/plib_tc3.o
 .data          0x00000000        0x0 build/default/production/_ext/829342655/plib_tc3.o
 .bss           0x00000000        0x0 build/default/production/_ext/829342655/plib_tc3.o
 .text.TC3_TimerCommandSet
                0x00000000       0x18 build/default/production/_ext/829342655/plib_tc3.o
 .text.TC3_Timer16bitCounterSet
                0x00000000       0x14 build/default/production/_ext/829342655/plib_tc3.o
 .text.TC3_Timer16bitPeriodGet
                0x00000000       0x20 build/default/production/_ext/829342655/plib_tc3.o
 .text          0x00000000        0x0 build/default/production/_ext/101884895/sys_time.o
 .data          0x00000000        0x0 build/default/production/_ext/101884895/sys_time.o
 .bss           0x00000000        0x0 build/default/production/_ext/101884895/sys_time.o
 .text.SYS_TIME_Deinitialize
                0x00000000       0x30 build/default/production/_ext/101884895/sys_time.o
 .text.SYS_TIME_Status
                0x00000000       0x18 build/default/production/_ext/101884895/sys_time.o
 .text.SYS_TIME_FrequencyGet
                0x00000000        0xc build/default/production/_ext/101884895/sys_time.o
 .text.SYS_TIME_Counter64Get
                0x00000000       0x50 build/default/production/_ext/101884895/sys_time.o
 .text.SYS_TIME_CounterGet
                0x00000000        0x8 build/default/production/_ext/101884895/sys_time.o
 .text.SYS_TIME_CounterSet
                0x00000000       0x20 build/default/production/_ext/101884895/sys_time.o
 .text.SYS_TIME_CountToUS
                0x00000000       0x20 build/default/production/_ext/101884895/sys_time.o
 .text.SYS_TIME_CountToMS
                0x00000000       0x20 build/default/production/_ext/101884895/sys_time.o
 .text.SYS_TIME_USToCount
                0x00000000       0x24 build/default/production/_ext/101884895/sys_time.o
 .text.SYS_TIME_MSToCount
                0x00000000       0x20 build/default/production/_ext/101884895/sys_time.o
 .text.SYS_TIME_TimerCreate
                0x00000000       0x20 build/default/production/_ext/101884895/sys_time.o
 .text.SYS_TIME_TimerReload
                0x00000000       0x9c build/default/production/_ext/101884895/sys_time.o
 .text.SYS_TIME_TimerStop
                0x00000000       0x3e build/default/production/_ext/101884895/sys_time.o
 .text.SYS_TIME_TimerCounterGet
                0x00000000       0x8c build/default/production/_ext/101884895/sys_time.o
 .text.SYS_TIME_DelayUS
                0x00000000       0x54 build/default/production/_ext/101884895/sys_time.o
 .text.SYS_TIME_CallbackRegisterUS
                0x00000000       0x5c build/default/production/_ext/101884895/sys_time.o
 .text          0x00000000        0x0 build/default/production/_ext/1171490990/usb_host_init_data.o
 .data          0x00000000        0x0 build/default/production/_ext/1171490990/usb_host_init_data.o
 .bss           0x00000000        0x0 build/default/production/_ext/1171490990/usb_host_init_data.o
 .text          0x00000000        0x0 build/default/production/_ext/308758920/usb_host.o
 .data          0x00000000        0x0 build/default/production/_ext/308758920/usb_host.o
 .bss           0x00000000        0x0 build/default/production/_ext/308758920/usb_host.o
 .text._USB_HOST_FillSetupPacket
                0x00000000       0x22 build/default/production/_ext/308758920/usb_host.o
 .text.USB_HOST_Status
                0x00000000        0xe build/default/production/_ext/308758920/usb_host.o
 .text.USB_HOST_Deinitialize
                0x00000000        0xa build/default/production/_ext/308758920/usb_host.o
 .text.USB_HOST_DeviceGetFirst
                0x00000000       0x78 build/default/production/_ext/308758920/usb_host.o
 .text.USB_HOST_DeviceGetNext
                0x00000000       0x78 build/default/production/_ext/308758920/usb_host.o
 .text.USB_HOST_DeviceSpeedGet
                0x00000000       0x48 build/default/production/_ext/308758920/usb_host.o
 .text.USB_HOST_BusDisable
                0x00000000       0x38 build/default/production/_ext/308758920/usb_host.o
 .text.USB_HOST_BusIsDisabled
                0x00000000       0x2c build/default/production/_ext/308758920/usb_host.o
 .text.USB_HOST_BusSuspend
                0x00000000       0x4c build/default/production/_ext/308758920/usb_host.o
 .text.USB_HOST_BusIsSuspended
                0x00000000       0x48 build/default/production/_ext/308758920/usb_host.o
 .text.USB_HOST_BusResume
                0x00000000        0x6 build/default/production/_ext/308758920/usb_host.o
 .text.USB_HOST_DeviceInterfaceQueryContextClear
                0x00000000        0xa build/default/production/_ext/308758920/usb_host.o
 .text.USB_HOST_DeviceRelease
                0x00000000       0x5c build/default/production/_ext/308758920/usb_host.o
 .text.USB_HOST_DeviceIADQueryContextClear
                0x00000000        0xa build/default/production/_ext/308758920/usb_host.o
 .text.USB_HOST_DeviceConfigurationSet
                0x00000000       0xa4 build/default/production/_ext/308758920/usb_host.o
 .text.USB_HOST_DeviceInterfaceSet
                0x00000000      0x16c build/default/production/_ext/308758920/usb_host.o
 .text.USB_HOST_DeviceStringDescriptorGet
                0x00000000      0x1f0 build/default/production/_ext/308758920/usb_host.o
 .text.USB_HOST_OverCurrentDetected
                0x00000000       0x1c build/default/production/_ext/308758920/usb_host.o
 .text.USB_HOST_DeviceConfigurationDescriptorGet
                0x00000000      0x16c build/default/production/_ext/308758920/usb_host.o
 .text          0x00000000        0x0 build/default/production/_ext/1269487135/sys_fs.o
 .data          0x00000000        0x0 build/default/production/_ext/1269487135/sys_fs.o
 .bss           0x00000000        0x0 build/default/production/_ext/1269487135/sys_fs.o
 .text.SYS_FS_FileNameGet
                0x00000000       0x5c build/default/production/_ext/1269487135/sys_fs.o
 .text.SYS_FS_FileSeek
                0x00000000       0xd0 build/default/production/_ext/1269487135/sys_fs.o
 .text.SYS_FS_FileTell
                0x00000000       0x70 build/default/production/_ext/1269487135/sys_fs.o
 .text.SYS_FS_FileEOF
                0x00000000       0x60 build/default/production/_ext/1269487135/sys_fs.o
 .text.SYS_FS_FileStat
                0x00000000       0x94 build/default/production/_ext/1269487135/sys_fs.o
 .text.SYS_FS_Error
                0x00000000        0xc build/default/production/_ext/1269487135/sys_fs.o
 .text.SYS_FS_FileError
                0x00000000       0x14 build/default/production/_ext/1269487135/sys_fs.o
 .text.SYS_FS_DirOpen
                0x00000000       0xd0 build/default/production/_ext/1269487135/sys_fs.o
 .text.SYS_FS_DirClose
                0x00000000       0x78 build/default/production/_ext/1269487135/sys_fs.o
 .text.SYS_FS_DirRead
                0x00000000       0x74 build/default/production/_ext/1269487135/sys_fs.o
 .text.SYS_FS_DirRewind
                0x00000000       0x74 build/default/production/_ext/1269487135/sys_fs.o
 .text.SYS_FS_DirSearch
                0x00000000      0x178 build/default/production/_ext/1269487135/sys_fs.o
 .text.SYS_FS_FileStringGet
                0x00000000       0x80 build/default/production/_ext/1269487135/sys_fs.o
 .text.SYS_FS_DirectoryChange
                0x00000000       0x8c build/default/production/_ext/1269487135/sys_fs.o
 .text.SYS_FS_CurrentWorkingDirectoryGet
                0x00000000      0x11c build/default/production/_ext/1269487135/sys_fs.o
 .text.SYS_FS_CurrentDriveGet
                0x00000000       0x4c build/default/production/_ext/1269487135/sys_fs.o
 .text.SYS_FS_DriveLabelGet
                0x00000000       0xac build/default/production/_ext/1269487135/sys_fs.o
 .text.SYS_FS_FileSync
                0x00000000       0x70 build/default/production/_ext/1269487135/sys_fs.o
 .text.SYS_FS_FileTruncate
                0x00000000       0x70 build/default/production/_ext/1269487135/sys_fs.o
 .text.SYS_FS_FileCharacterPut
                0x00000000       0x78 build/default/production/_ext/1269487135/sys_fs.o
 .text.SYS_FS_FileStringPut
                0x00000000       0x7c build/default/production/_ext/1269487135/sys_fs.o
 .text.SYS_FS_FilePrintf
                0x00000000       0x90 build/default/production/_ext/1269487135/sys_fs.o
 .text.SYS_FS_FileTestError
                0x00000000       0x60 build/default/production/_ext/1269487135/sys_fs.o
 .text.SYS_FS_DirectoryMake
                0x00000000       0x8c build/default/production/_ext/1269487135/sys_fs.o
 .text.SYS_FS_FileDirectoryRemove
                0x00000000       0x8c build/default/production/_ext/1269487135/sys_fs.o
 .text.SYS_FS_FileDirectoryModeSet
                0x00000000       0x94 build/default/production/_ext/1269487135/sys_fs.o
 .text.SYS_FS_FileDirectoryTimeSet
                0x00000000       0xa8 build/default/production/_ext/1269487135/sys_fs.o
 .text.SYS_FS_FileDirectoryRenameMove
                0x00000000       0xbc build/default/production/_ext/1269487135/sys_fs.o
 .text.SYS_FS_CurrentDriveSet
                0x00000000       0xa0 build/default/production/_ext/1269487135/sys_fs.o
 .text.SYS_FS_DriveLabelSet
                0x00000000       0xb8 build/default/production/_ext/1269487135/sys_fs.o
 .text.SYS_FS_DriveFormat
                0x00000000       0x78 build/default/production/_ext/1269487135/sys_fs.o
 .text.SYS_FS_DrivePartition
                0x00000000       0x7c build/default/production/_ext/1269487135/sys_fs.o
 .text.SYS_FS_DriveSectorGet
                0x00000000       0xbc build/default/production/_ext/1269487135/sys_fs.o
 .text          0x00000000        0x0 build/default/production/_ext/1269487135/sys_fs_media_manager.o
 .data          0x00000000        0x0 build/default/production/_ext/1269487135/sys_fs_media_manager.o
 .bss           0x00000000        0x0 build/default/production/_ext/1269487135/sys_fs_media_manager.o
 .text.SYS_FS_MEDIA_MANAGER_Read
                0x00000000       0x4c build/default/production/_ext/1269487135/sys_fs_media_manager.o
 .text.SYS_FS_MEDIA_MANAGER_AddressGet
                0x00000000       0x20 build/default/production/_ext/1269487135/sys_fs_media_manager.o
 .text.SYS_FS_MEDIA_MANAGER_CommandStatusGet
                0x00000000       0x28 build/default/production/_ext/1269487135/sys_fs_media_manager.o
 .text          0x00000000        0x0 build/default/production/_ext/1269487135/sys_fs_fat_interface.o
 .data          0x00000000        0x0 build/default/production/_ext/1269487135/sys_fs_fat_interface.o
 .bss           0x00000000        0x0 build/default/production/_ext/1269487135/sys_fs_fat_interface.o
 .text.FATFS_getfree
                0x00000000        0x8 build/default/production/_ext/1269487135/sys_fs_fat_interface.o
 .text          0x00000000        0x0 build/default/production/_ext/411819097/ff.o
 .data          0x00000000        0x0 build/default/production/_ext/411819097/ff.o
 .bss           0x00000000        0x0 build/default/production/_ext/411819097/ff.o
 .text          0x00000000        0x0 build/default/production/_ext/411819097/ffunicode.o
 .data          0x00000000        0x0 build/default/production/_ext/411819097/ffunicode.o
 .bss           0x00000000        0x0 build/default/production/_ext/411819097/ffunicode.o
 .text          0x00000000        0x0 build/default/production/_ext/565198302/diskio.o
 .data          0x00000000        0x0 build/default/production/_ext/565198302/diskio.o
 .bss           0x00000000        0x0 build/default/production/_ext/565198302/diskio.o
 .text          0x00000000        0x0 build/default/production/_ext/818654064/drv_usbfsv1.o
 .data          0x00000000        0x0 build/default/production/_ext/818654064/drv_usbfsv1.o
 .bss           0x00000000        0x0 build/default/production/_ext/818654064/drv_usbfsv1.o
 .text.DRV_USBFSV1_Deinitialize
                0x00000000       0x5c build/default/production/_ext/818654064/drv_usbfsv1.o
 .text.DRV_USBFSV1_Status
                0x00000000       0x20 build/default/production/_ext/818654064/drv_usbfsv1.o
 .text.DRV_USBFSV1_OTHER_Handler
                0x00000000       0x10 build/default/production/_ext/818654064/drv_usbfsv1.o
 .text.DRV_USBFSV1_SOF_HSOF_Handler
                0x00000000       0x10 build/default/production/_ext/818654064/drv_usbfsv1.o
 .text.DRV_USBFSV1_TRCPT0_Handler
                0x00000000       0x10 build/default/production/_ext/818654064/drv_usbfsv1.o
 .text.DRV_USBFSV1_TRCPT1_Handler
                0x00000000       0x10 build/default/production/_ext/818654064/drv_usbfsv1.o
 .text          0x00000000        0x0 build/default/production/_ext/818654064/drv_usbfsv1_host.o
 .data          0x00000000        0x0 build/default/production/_ext/818654064/drv_usbfsv1_host.o
 .bss           0x00000000        0x0 build/default/production/_ext/818654064/drv_usbfsv1_host.o
 .text.DRV_USBFSV1_HOST_StartOfFrameControl
                0x00000000       0x22 build/default/production/_ext/818654064/drv_usbfsv1_host.o
 .text.DRV_USBFSV1_HOST_DeviceCurrentSpeedGet
                0x00000000       0x22 build/default/production/_ext/818654064/drv_usbfsv1_host.o
 .text          0x00000000        0x0 build/default/production/_ext/1881668453/sys_int.o
 .data          0x00000000        0x0 build/default/production/_ext/1881668453/sys_int.o
 .bss           0x00000000        0x0 build/default/production/_ext/1881668453/sys_int.o
 .text.SYS_INT_SourceRestore
                0x00000000       0x1c build/default/production/_ext/1881668453/sys_int.o
 .text          0x00000000        0x0 build/default/production/_ext/1360937237/app.o
 .data          0x00000000        0x0 build/default/production/_ext/1360937237/app.o
 .bss           0x00000000        0x0 build/default/production/_ext/1360937237/app.o
 .text          0x00000000        0x0 build/default/production/_ext/1171490990/tasks.o
 .data          0x00000000        0x0 build/default/production/_ext/1171490990/tasks.o
 .bss           0x00000000        0x0 build/default/production/_ext/1171490990/tasks.o
 .text          0x00000000        0x0 c:/program files/microchip/xc32/v2.41/bin/bin/../../lib/gcc/pic32c/6.2.1/../../../../pic32c/lib\libpic32c.a(data_init.o)
 .data          0x00000000        0x0 c:/program files/microchip/xc32/v2.41/bin/bin/../../lib/gcc/pic32c/6.2.1/../../../../pic32c/lib\libpic32c.a(data_init.o)
 .bss           0x00000000        0x0 c:/program files/microchip/xc32/v2.41/bin/bin/../../lib/gcc/pic32c/6.2.1/../../../../pic32c/lib\libpic32c.a(data_init.o)
 .data          0x00000000        0x0 c:/program files/microchip/xc32/v2.41/bin/bin/../../lib/gcc/pic32c/6.2.1\libgcc.a(_udivsi3.o)
 .bss           0x00000000        0x0 c:/program files/microchip/xc32/v2.41/bin/bin/../../lib/gcc/pic32c/6.2.1\libgcc.a(_udivsi3.o)
 .data          0x00000000        0x0 c:/program files/microchip/xc32/v2.41/bin/bin/../../lib/gcc/pic32c/6.2.1\libgcc.a(_divsi3.o)
 .bss           0x00000000        0x0 c:/program files/microchip/xc32/v2.41/bin/bin/../../lib/gcc/pic32c/6.2.1\libgcc.a(_divsi3.o)
 .data          0x00000000        0x0 c:/program files/microchip/xc32/v2.41/bin/bin/../../lib/gcc/pic32c/6.2.1\libgcc.a(_dvmd_tls.o)
 .bss           0x00000000        0x0 c:/program files/microchip/xc32/v2.41/bin/bin/../../lib/gcc/pic32c/6.2.1\libgcc.a(_dvmd_tls.o)
 .data          0x00000000        0x0 c:/program files/microchip/xc32/v2.41/bin/bin/../../lib/gcc/pic32c/6.2.1\libgcc.a(_aeabi_uldivmod.o)
 .bss           0x00000000        0x0 c:/program files/microchip/xc32/v2.41/bin/bin/../../lib/gcc/pic32c/6.2.1\libgcc.a(_aeabi_uldivmod.o)
 .data          0x00000000        0x0 c:/program files/microchip/xc32/v2.41/bin/bin/../../lib/gcc/pic32c/6.2.1\libgcc.a(_muldi3.o)
 .bss           0x00000000        0x0 c:/program files/microchip/xc32/v2.41/bin/bin/../../lib/gcc/pic32c/6.2.1\libgcc.a(_muldi3.o)
 .data          0x00000000        0x0 c:/program files/microchip/xc32/v2.41/bin/bin/../../lib/gcc/pic32c/6.2.1\libgcc.a(_udivmoddi4.o)
 .bss           0x00000000        0x0 c:/program files/microchip/xc32/v2.41/bin/bin/../../lib/gcc/pic32c/6.2.1\libgcc.a(_udivmoddi4.o)
 .ARM.extab     0x00000000        0x0 c:/program files/microchip/xc32/v2.41/bin/bin/../../lib/gcc/pic32c/6.2.1\libgcc.a(_udivmoddi4.o)
 .data          0x00000000        0x0 c:/program files/microchip/xc32/v2.41/bin/bin/../../lib/gcc/pic32c/6.2.1\libgcc.a(_lshrdi3.o)
 .bss           0x00000000        0x0 c:/program files/microchip/xc32/v2.41/bin/bin/../../lib/gcc/pic32c/6.2.1\libgcc.a(_lshrdi3.o)
 .data          0x00000000        0x0 c:/program files/microchip/xc32/v2.41/bin/bin/../../lib/gcc/pic32c/6.2.1\libgcc.a(_ashldi3.o)
 .bss           0x00000000        0x0 c:/program files/microchip/xc32/v2.41/bin/bin/../../lib/gcc/pic32c/6.2.1\libgcc.a(_ashldi3.o)
 .data          0x00000000        0x0 c:/program files/microchip/xc32/v2.41/bin/bin/../../lib/gcc/pic32c/6.2.1\libgcc.a(_clzdi2.o)
 .bss           0x00000000        0x0 c:/program files/microchip/xc32/v2.41/bin/bin/../../lib/gcc/pic32c/6.2.1\libgcc.a(_clzdi2.o)
 .data          0x00000000        0x0 c:/program files/microchip/xc32/v2.41/bin/bin/../../lib/gcc/pic32c/6.2.1\libgcc.a(_clzsi2.o)
 .bss           0x00000000        0x0 c:/program files/microchip/xc32/v2.41/bin/bin/../../lib/gcc/pic32c/6.2.1\libgcc.a(_clzsi2.o)
 .text          0x00000000        0x0 c:/program files/microchip/xc32/v2.41/bin/bin/../../lib/gcc/pic32c/6.2.1/../../../../pic32c/lib\libc_nano.a(lib_a-impure.o)
 .data          0x00000000        0x0 c:/program files/microchip/xc32/v2.41/bin/bin/../../lib/gcc/pic32c/6.2.1/../../../../pic32c/lib\libc_nano.a(lib_a-impure.o)
 .bss           0x00000000        0x0 c:/program files/microchip/xc32/v2.41/bin/bin/../../lib/gcc/pic32c/6.2.1/../../../../pic32c/lib\libc_nano.a(lib_a-impure.o)
 .text          0x00000000        0x0 c:/program files/microchip/xc32/v2.41/bin/bin/../../lib/gcc/pic32c/6.2.1/../../../../pic32c/lib\libc_nano.a(lib_a-init.o)
 .data          0x00000000        0x0 c:/program files/microchip/xc32/v2.41/bin/bin/../../lib/gcc/pic32c/6.2.1/../../../../pic32c/lib\libc_nano.a(lib_a-init.o)
 .bss           0x00000000        0x0 c:/program files/microchip/xc32/v2.41/bin/bin/../../lib/gcc/pic32c/6.2.1/../../../../pic32c/lib\libc_nano.a(lib_a-init.o)
 .text          0x00000000        0x0 c:/program files/microchip/xc32/v2.41/bin/bin/../../lib/gcc/pic32c/6.2.1/../../../../pic32c/lib\libc_nano.a(lib_a-malloc.o)
 .data          0x00000000        0x0 c:/program files/microchip/xc32/v2.41/bin/bin/../../lib/gcc/pic32c/6.2.1/../../../../pic32c/lib\libc_nano.a(lib_a-malloc.o)
 .bss           0x00000000        0x0 c:/program files/microchip/xc32/v2.41/bin/bin/../../lib/gcc/pic32c/6.2.1/../../../../pic32c/lib\libc_nano.a(lib_a-malloc.o)
 .text          0x00000000        0x0 c:/program files/microchip/xc32/v2.41/bin/bin/../../lib/gcc/pic32c/6.2.1/../../../../pic32c/lib\libc_nano.a(lib_a-memcpy-stub.o)
 .data          0x00000000        0x0 c:/program files/microchip/xc32/v2.41/bin/bin/../../lib/gcc/pic32c/6.2.1/../../../../pic32c/lib\libc_nano.a(lib_a-memcpy-stub.o)
 .bss           0x00000000        0x0 c:/program files/microchip/xc32/v2.41/bin/bin/../../lib/gcc/pic32c/6.2.1/../../../../pic32c/lib\libc_nano.a(lib_a-memcpy-stub.o)
 .text          0x00000000        0x0 c:/program files/microchip/xc32/v2.41/bin/bin/../../lib/gcc/pic32c/6.2.1/../../../../pic32c/lib\libc_nano.a(lib_a-memset.o)
 .data          0x00000000        0x0 c:/program files/microchip/xc32/v2.41/bin/bin/../../lib/gcc/pic32c/6.2.1/../../../../pic32c/lib\libc_nano.a(lib_a-memset.o)
 .bss           0x00000000        0x0 c:/program files/microchip/xc32/v2.41/bin/bin/../../lib/gcc/pic32c/6.2.1/../../../../pic32c/lib\libc_nano.a(lib_a-memset.o)
 .text          0x00000000        0x0 c:/program files/microchip/xc32/v2.41/bin/bin/../../lib/gcc/pic32c/6.2.1/../../../../pic32c/lib\libc_nano.a(lib_a-nano-freer.o)
 .data          0x00000000        0x0 c:/program files/microchip/xc32/v2.41/bin/bin/../../lib/gcc/pic32c/6.2.1/../../../../pic32c/lib\libc_nano.a(lib_a-nano-freer.o)
 .bss           0x00000000        0x0 c:/program files/microchip/xc32/v2.41/bin/bin/../../lib/gcc/pic32c/6.2.1/../../../../pic32c/lib\libc_nano.a(lib_a-nano-freer.o)
 .text          0x00000000        0x0 c:/program files/microchip/xc32/v2.41/bin/bin/../../lib/gcc/pic32c/6.2.1/../../../../pic32c/lib\libc_nano.a(lib_a-nano-mallocr.o)
 .data          0x00000000        0x0 c:/program files/microchip/xc32/v2.41/bin/bin/../../lib/gcc/pic32c/6.2.1/../../../../pic32c/lib\libc_nano.a(lib_a-nano-mallocr.o)
 .bss           0x00000000        0x0 c:/program files/microchip/xc32/v2.41/bin/bin/../../lib/gcc/pic32c/6.2.1/../../../../pic32c/lib\libc_nano.a(lib_a-nano-mallocr.o)
 .text          0x00000000        0x0 c:/program files/microchip/xc32/v2.41/bin/bin/../../lib/gcc/pic32c/6.2.1/../../../../pic32c/lib\libc_nano.a(lib_a-printf.o)
 .data          0x00000000        0x0 c:/program files/microchip/xc32/v2.41/bin/bin/../../lib/gcc/pic32c/6.2.1/../../../../pic32c/lib\libc_nano.a(lib_a-printf.o)
 .bss           0x00000000        0x0 c:/program files/microchip/xc32/v2.41/bin/bin/../../lib/gcc/pic32c/6.2.1/../../../../pic32c/lib\libc_nano.a(lib_a-printf.o)
 .text._printf_r
                0x00000000       0x28 c:/program files/microchip/xc32/v2.41/bin/bin/../../lib/gcc/pic32c/6.2.1/../../../../pic32c/lib\libc_nano.a(lib_a-printf.o)
 .text          0x00000000        0x0 c:/program files/microchip/xc32/v2.41/bin/bin/../../lib/gcc/pic32c/6.2.1/../../../../pic32c/lib\libc_nano.a(lib_a-sbrkr.o)
 .data          0x00000000        0x0 c:/program files/microchip/xc32/v2.41/bin/bin/../../lib/gcc/pic32c/6.2.1/../../../../pic32c/lib\libc_nano.a(lib_a-sbrkr.o)
 .bss           0x00000000        0x0 c:/program files/microchip/xc32/v2.41/bin/bin/../../lib/gcc/pic32c/6.2.1/../../../../pic32c/lib\libc_nano.a(lib_a-sbrkr.o)
 .text          0x00000000        0x0 c:/program files/microchip/xc32/v2.41/bin/bin/../../lib/gcc/pic32c/6.2.1/../../../../pic32c/lib\libc_nano.a(_lib_a-scanf.s.o)
 .data          0x00000000        0x0 c:/program files/microchip/xc32/v2.41/bin/bin/../../lib/gcc/pic32c/6.2.1/../../../../pic32c/lib\libc_nano.a(_lib_a-scanf.s.o)
 .bss           0x00000000        0x0 c:/program files/microchip/xc32/v2.41/bin/bin/../../lib/gcc/pic32c/6.2.1/../../../../pic32c/lib\libc_nano.a(_lib_a-scanf.s.o)
 .text          0x00000000        0x0 c:/program files/microchip/xc32/v2.41/bin/bin/../../lib/gcc/pic32c/6.2.1/../../../../pic32c/lib\libc_nano.a(lib_a-setbuf.o)
 .data          0x00000000        0x0 c:/program files/microchip/xc32/v2.41/bin/bin/../../lib/gcc/pic32c/6.2.1/../../../../pic32c/lib\libc_nano.a(lib_a-setbuf.o)
 .bss           0x00000000        0x0 c:/program files/microchip/xc32/v2.41/bin/bin/../../lib/gcc/pic32c/6.2.1/../../../../pic32c/lib\libc_nano.a(lib_a-setbuf.o)
 .text          0x00000000        0x0 c:/program files/microchip/xc32/v2.41/bin/bin/../../lib/gcc/pic32c/6.2.1/../../../../pic32c/lib\libc_nano.a(lib_a-setvbuf.o)
 .data          0x00000000        0x0 c:/program files/microchip/xc32/v2.41/bin/bin/../../lib/gcc/pic32c/6.2.1/../../../../pic32c/lib\libc_nano.a(lib_a-setvbuf.o)
 .bss           0x00000000        0x0 c:/program files/microchip/xc32/v2.41/bin/bin/../../lib/gcc/pic32c/6.2.1/../../../../pic32c/lib\libc_nano.a(lib_a-setvbuf.o)
 .text          0x00000000        0x0 c:/program files/microchip/xc32/v2.41/bin/bin/../../lib/gcc/pic32c/6.2.1/../../../../pic32c/lib\libc_nano.a(lib_a-sprintf.o)
 .data          0x00000000        0x0 c:/program files/microchip/xc32/v2.41/bin/bin/../../lib/gcc/pic32c/6.2.1/../../../../pic32c/lib\libc_nano.a(lib_a-sprintf.o)
 .bss           0x00000000        0x0 c:/program files/microchip/xc32/v2.41/bin/bin/../../lib/gcc/pic32c/6.2.1/../../../../pic32c/lib\libc_nano.a(lib_a-sprintf.o)
 .text._sprintf_r
                0x00000000       0x40 c:/program files/microchip/xc32/v2.41/bin/bin/../../lib/gcc/pic32c/6.2.1/../../../../pic32c/lib\libc_nano.a(lib_a-sprintf.o)
 .data          0x00000000        0x0 c:/program files/microchip/xc32/v2.41/bin/bin/../../lib/gcc/pic32c/6.2.1/../../../../pic32c/lib\libc_nano.a(lib_a-strcmp.o)
 .bss           0x00000000        0x0 c:/program files/microchip/xc32/v2.41/bin/bin/../../lib/gcc/pic32c/6.2.1/../../../../pic32c/lib\libc_nano.a(lib_a-strcmp.o)
 .text          0x00000000        0x0 c:/program files/microchip/xc32/v2.41/bin/bin/../../lib/gcc/pic32c/6.2.1/../../../../pic32c/lib\libc_nano.a(lib_a-strcpy.o)
 .data          0x00000000        0x0 c:/program files/microchip/xc32/v2.41/bin/bin/../../lib/gcc/pic32c/6.2.1/../../../../pic32c/lib\libc_nano.a(lib_a-strcpy.o)
 .bss           0x00000000        0x0 c:/program files/microchip/xc32/v2.41/bin/bin/../../lib/gcc/pic32c/6.2.1/../../../../pic32c/lib\libc_nano.a(lib_a-strcpy.o)
 .text.strcpy   0x00000000       0x10 c:/program files/microchip/xc32/v2.41/bin/bin/../../lib/gcc/pic32c/6.2.1/../../../../pic32c/lib\libc_nano.a(lib_a-strcpy.o)
 .debug_info    0x00000000      0xd58 c:/program files/microchip/xc32/v2.41/bin/bin/../../lib/gcc/pic32c/6.2.1/../../../../pic32c/lib\libc_nano.a(lib_a-strcpy.o)
 .debug_abbrev  0x00000000      0x157 c:/program files/microchip/xc32/v2.41/bin/bin/../../lib/gcc/pic32c/6.2.1/../../../../pic32c/lib\libc_nano.a(lib_a-strcpy.o)
 .debug_loc     0x00000000       0x21 c:/program files/microchip/xc32/v2.41/bin/bin/../../lib/gcc/pic32c/6.2.1/../../../../pic32c/lib\libc_nano.a(lib_a-strcpy.o)
 .debug_aranges
                0x00000000       0x20 c:/program files/microchip/xc32/v2.41/bin/bin/../../lib/gcc/pic32c/6.2.1/../../../../pic32c/lib\libc_nano.a(lib_a-strcpy.o)
 .debug_ranges  0x00000000       0x10 c:/program files/microchip/xc32/v2.41/bin/bin/../../lib/gcc/pic32c/6.2.1/../../../../pic32c/lib\libc_nano.a(lib_a-strcpy.o)
 .debug_line    0x00000000      0x205 c:/program files/microchip/xc32/v2.41/bin/bin/../../lib/gcc/pic32c/6.2.1/../../../../pic32c/lib\libc_nano.a(lib_a-strcpy.o)
 .debug_str     0x00000000        0x9 c:/program files/microchip/xc32/v2.41/bin/bin/../../lib/gcc/pic32c/6.2.1/../../../../pic32c/lib\libc_nano.a(lib_a-strcpy.o)
 .comment       0x00000000       0x3d c:/program files/microchip/xc32/v2.41/bin/bin/../../lib/gcc/pic32c/6.2.1/../../../../pic32c/lib\libc_nano.a(lib_a-strcpy.o)
 .debug_frame   0x00000000       0x20 c:/program files/microchip/xc32/v2.41/bin/bin/../../lib/gcc/pic32c/6.2.1/../../../../pic32c/lib\libc_nano.a(lib_a-strcpy.o)
 .ARM.attributes
                0x00000000       0x2c c:/program files/microchip/xc32/v2.41/bin/bin/../../lib/gcc/pic32c/6.2.1/../../../../pic32c/lib\libc_nano.a(lib_a-strcpy.o)
 .data          0x00000000        0x0 c:/program files/microchip/xc32/v2.41/bin/bin/../../lib/gcc/pic32c/6.2.1/../../../../pic32c/lib\libc_nano.a(lib_a-strlen.o)
 .bss           0x00000000        0x0 c:/program files/microchip/xc32/v2.41/bin/bin/../../lib/gcc/pic32c/6.2.1/../../../../pic32c/lib\libc_nano.a(lib_a-strlen.o)
 .text          0x00000000        0x0 c:/program files/microchip/xc32/v2.41/bin/bin/../../lib/gcc/pic32c/6.2.1/../../../../pic32c/lib\libc_nano.a(lib_a-strncmp.o)
 .data          0x00000000        0x0 c:/program files/microchip/xc32/v2.41/bin/bin/../../lib/gcc/pic32c/6.2.1/../../../../pic32c/lib\libc_nano.a(lib_a-strncmp.o)
 .bss           0x00000000        0x0 c:/program files/microchip/xc32/v2.41/bin/bin/../../lib/gcc/pic32c/6.2.1/../../../../pic32c/lib\libc_nano.a(lib_a-strncmp.o)
 .text          0x00000000        0x0 c:/program files/microchip/xc32/v2.41/bin/bin/../../lib/gcc/pic32c/6.2.1/../../../../pic32c/lib\libc_nano.a(lib_a-strncpy.o)
 .data          0x00000000        0x0 c:/program files/microchip/xc32/v2.41/bin/bin/../../lib/gcc/pic32c/6.2.1/../../../../pic32c/lib\libc_nano.a(lib_a-strncpy.o)
 .bss           0x00000000        0x0 c:/program files/microchip/xc32/v2.41/bin/bin/../../lib/gcc/pic32c/6.2.1/../../../../pic32c/lib\libc_nano.a(lib_a-strncpy.o)
 .text          0x00000000        0x0 c:/program files/microchip/xc32/v2.41/bin/bin/../../lib/gcc/pic32c/6.2.1/../../../../pic32c/lib\libc_nano.a(lib_a-fflush.o)
 .data          0x00000000        0x0 c:/program files/microchip/xc32/v2.41/bin/bin/../../lib/gcc/pic32c/6.2.1/../../../../pic32c/lib\libc_nano.a(lib_a-fflush.o)
 .bss           0x00000000        0x0 c:/program files/microchip/xc32/v2.41/bin/bin/../../lib/gcc/pic32c/6.2.1/../../../../pic32c/lib\libc_nano.a(lib_a-fflush.o)
 .text          0x00000000        0x0 c:/program files/microchip/xc32/v2.41/bin/bin/../../lib/gcc/pic32c/6.2.1/../../../../pic32c/lib\libc_nano.a(lib_a-findfp.o)
 .data          0x00000000        0x0 c:/program files/microchip/xc32/v2.41/bin/bin/../../lib/gcc/pic32c/6.2.1/../../../../pic32c/lib\libc_nano.a(lib_a-findfp.o)
 .bss           0x00000000        0x0 c:/program files/microchip/xc32/v2.41/bin/bin/../../lib/gcc/pic32c/6.2.1/../../../../pic32c/lib\libc_nano.a(lib_a-findfp.o)
 .text._cleanup
                0x00000000       0x10 c:/program files/microchip/xc32/v2.41/bin/bin/../../lib/gcc/pic32c/6.2.1/../../../../pic32c/lib\libc_nano.a(lib_a-findfp.o)
 .text          0x00000000        0x0 c:/program files/microchip/xc32/v2.41/bin/bin/../../lib/gcc/pic32c/6.2.1/../../../../pic32c/lib\libc_nano.a(lib_a-fwalk.o)
 .data          0x00000000        0x0 c:/program files/microchip/xc32/v2.41/bin/bin/../../lib/gcc/pic32c/6.2.1/../../../../pic32c/lib\libc_nano.a(lib_a-fwalk.o)
 .bss           0x00000000        0x0 c:/program files/microchip/xc32/v2.41/bin/bin/../../lib/gcc/pic32c/6.2.1/../../../../pic32c/lib\libc_nano.a(lib_a-fwalk.o)
 .text          0x00000000        0x0 c:/program files/microchip/xc32/v2.41/bin/bin/../../lib/gcc/pic32c/6.2.1/../../../../pic32c/lib\libc_nano.a(lib_a-makebuf.o)
 .data          0x00000000        0x0 c:/program files/microchip/xc32/v2.41/bin/bin/../../lib/gcc/pic32c/6.2.1/../../../../pic32c/lib\libc_nano.a(lib_a-makebuf.o)
 .bss           0x00000000        0x0 c:/program files/microchip/xc32/v2.41/bin/bin/../../lib/gcc/pic32c/6.2.1/../../../../pic32c/lib\libc_nano.a(lib_a-makebuf.o)
 .text          0x00000000        0x0 c:/program files/microchip/xc32/v2.41/bin/bin/../../lib/gcc/pic32c/6.2.1/../../../../pic32c/lib\libc_nano.a(lib_a-mlock.o)
 .data          0x00000000        0x0 c:/program files/microchip/xc32/v2.41/bin/bin/../../lib/gcc/pic32c/6.2.1/../../../../pic32c/lib\libc_nano.a(lib_a-mlock.o)
 .bss           0x00000000        0x0 c:/program files/microchip/xc32/v2.41/bin/bin/../../lib/gcc/pic32c/6.2.1/../../../../pic32c/lib\libc_nano.a(lib_a-mlock.o)
 .text          0x00000000        0x0 c:/program files/microchip/xc32/v2.41/bin/bin/../../lib/gcc/pic32c/6.2.1/../../../../pic32c/lib\libc_nano.a(lib_a-nano-svfprintf.o)
 .data          0x00000000        0x0 c:/program files/microchip/xc32/v2.41/bin/bin/../../lib/gcc/pic32c/6.2.1/../../../../pic32c/lib\libc_nano.a(lib_a-nano-svfprintf.o)
 .bss           0x00000000        0x0 c:/program files/microchip/xc32/v2.41/bin/bin/../../lib/gcc/pic32c/6.2.1/../../../../pic32c/lib\libc_nano.a(lib_a-nano-svfprintf.o)
 .text          0x00000000        0x0 c:/program files/microchip/xc32/v2.41/bin/bin/../../lib/gcc/pic32c/6.2.1/../../../../pic32c/lib\libc_nano.a(_lib_a-nano-vfprintf.cdeEfFgGnopsuxX.o)
 .data          0x00000000        0x0 c:/program files/microchip/xc32/v2.41/bin/bin/../../lib/gcc/pic32c/6.2.1/../../../../pic32c/lib\libc_nano.a(_lib_a-nano-vfprintf.cdeEfFgGnopsuxX.o)
 .bss           0x00000000        0x0 c:/program files/microchip/xc32/v2.41/bin/bin/../../lib/gcc/pic32c/6.2.1/../../../../pic32c/lib\libc_nano.a(_lib_a-nano-vfprintf.cdeEfFgGnopsuxX.o)
 .text._vfprintf_r_cdeEfFgGnopsuxX
                0x00000000      0x42c c:/program files/microchip/xc32/v2.41/bin/bin/../../lib/gcc/pic32c/6.2.1/../../../../pic32c/lib\libc_nano.a(_lib_a-nano-vfprintf.cdeEfFgGnopsuxX.o)
 .text._vfprintf_cdeEfFgGnopsuxX
                0x00000000       0x18 c:/program files/microchip/xc32/v2.41/bin/bin/../../lib/gcc/pic32c/6.2.1/../../../../pic32c/lib\libc_nano.a(_lib_a-nano-vfprintf.cdeEfFgGnopsuxX.o)
 .text          0x00000000        0x0 c:/program files/microchip/xc32/v2.41/bin/bin/../../lib/gcc/pic32c/6.2.1/../../../../pic32c/lib\libc_nano.a(lib_a-nano-vfprintf_i.o)
 .data          0x00000000        0x0 c:/program files/microchip/xc32/v2.41/bin/bin/../../lib/gcc/pic32c/6.2.1/../../../../pic32c/lib\libc_nano.a(lib_a-nano-vfprintf_i.o)
 .bss           0x00000000        0x0 c:/program files/microchip/xc32/v2.41/bin/bin/../../lib/gcc/pic32c/6.2.1/../../../../pic32c/lib\libc_nano.a(lib_a-nano-vfprintf_i.o)
 .text          0x00000000        0x0 c:/program files/microchip/xc32/v2.41/bin/bin/../../lib/gcc/pic32c/6.2.1/../../../../pic32c/lib\libc_nano.a(lib_a-nano-vfprintf.o)
 .data          0x00000000        0x0 c:/program files/microchip/xc32/v2.41/bin/bin/../../lib/gcc/pic32c/6.2.1/../../../../pic32c/lib\libc_nano.a(lib_a-nano-vfprintf.o)
 .bss           0x00000000        0x0 c:/program files/microchip/xc32/v2.41/bin/bin/../../lib/gcc/pic32c/6.2.1/../../../../pic32c/lib\libc_nano.a(lib_a-nano-vfprintf.o)
 .text.vfprintf
                0x00000000       0x18 c:/program files/microchip/xc32/v2.41/bin/bin/../../lib/gcc/pic32c/6.2.1/../../../../pic32c/lib\libc_nano.a(lib_a-nano-vfprintf.o)
 .text          0x00000000        0x0 c:/program files/microchip/xc32/v2.41/bin/bin/../../lib/gcc/pic32c/6.2.1/../../../../pic32c/lib\libc_nano.a(_lib_a-nano-vfscanf.s.o)
 .data          0x00000000        0x0 c:/program files/microchip/xc32/v2.41/bin/bin/../../lib/gcc/pic32c/6.2.1/../../../../pic32c/lib\libc_nano.a(_lib_a-nano-vfscanf.s.o)
 .bss           0x00000000        0x0 c:/program files/microchip/xc32/v2.41/bin/bin/../../lib/gcc/pic32c/6.2.1/../../../../pic32c/lib\libc_nano.a(_lib_a-nano-vfscanf.s.o)
 .text.__scanf_float
                0x00000000        0x4 c:/program files/microchip/xc32/v2.41/bin/bin/../../lib/gcc/pic32c/6.2.1/../../../../pic32c/lib\libc_nano.a(_lib_a-nano-vfscanf.s.o)
 .text.__vfscanf_r_s
                0x00000000       0x50 c:/program files/microchip/xc32/v2.41/bin/bin/../../lib/gcc/pic32c/6.2.1/../../../../pic32c/lib\libc_nano.a(_lib_a-nano-vfscanf.s.o)
 .text          0x00000000        0x0 c:/program files/microchip/xc32/v2.41/bin/bin/../../lib/gcc/pic32c/6.2.1/../../../../pic32c/lib\libc_nano.a(lib_a-reent.o)
 .data          0x00000000        0x0 c:/program files/microchip/xc32/v2.41/bin/bin/../../lib/gcc/pic32c/6.2.1/../../../../pic32c/lib\libc_nano.a(lib_a-reent.o)
 .bss           0x00000000        0x0 c:/program files/microchip/xc32/v2.41/bin/bin/../../lib/gcc/pic32c/6.2.1/../../../../pic32c/lib\libc_nano.a(lib_a-reent.o)
 .text.cleanup_glue
                0x00000000       0x1a c:/program files/microchip/xc32/v2.41/bin/bin/../../lib/gcc/pic32c/6.2.1/../../../../pic32c/lib\libc_nano.a(lib_a-reent.o)
 .text._reclaim_reent
                0x00000000       0xcc c:/program files/microchip/xc32/v2.41/bin/bin/../../lib/gcc/pic32c/6.2.1/../../../../pic32c/lib\libc_nano.a(lib_a-reent.o)
 .text          0x00000000        0x0 c:/program files/microchip/xc32/v2.41/bin/bin/../../lib/gcc/pic32c/6.2.1/../../../../pic32c/lib\libc_nano.a(lib_a-refill.o)
 .data          0x00000000        0x0 c:/program files/microchip/xc32/v2.41/bin/bin/../../lib/gcc/pic32c/6.2.1/../../../../pic32c/lib\libc_nano.a(lib_a-refill.o)
 .bss           0x00000000        0x0 c:/program files/microchip/xc32/v2.41/bin/bin/../../lib/gcc/pic32c/6.2.1/../../../../pic32c/lib\libc_nano.a(lib_a-refill.o)
 .text          0x00000000        0x0 c:/program files/microchip/xc32/v2.41/bin/bin/../../lib/gcc/pic32c/6.2.1/../../../../pic32c/lib\libc_nano.a(lib_a-sccl.o)
 .data          0x00000000        0x0 c:/program files/microchip/xc32/v2.41/bin/bin/../../lib/gcc/pic32c/6.2.1/../../../../pic32c/lib\libc_nano.a(lib_a-sccl.o)
 .bss           0x00000000        0x0 c:/program files/microchip/xc32/v2.41/bin/bin/../../lib/gcc/pic32c/6.2.1/../../../../pic32c/lib\libc_nano.a(lib_a-sccl.o)
 .text          0x00000000        0x0 c:/program files/microchip/xc32/v2.41/bin/bin/../../lib/gcc/pic32c/6.2.1/../../../../pic32c/lib\libc_nano.a(lib_a-__ssfputs.o)
 .data          0x00000000        0x0 c:/program files/microchip/xc32/v2.41/bin/bin/../../lib/gcc/pic32c/6.2.1/../../../../pic32c/lib\libc_nano.a(lib_a-__ssfputs.o)
 .bss           0x00000000        0x0 c:/program files/microchip/xc32/v2.41/bin/bin/../../lib/gcc/pic32c/6.2.1/../../../../pic32c/lib\libc_nano.a(lib_a-__ssfputs.o)
 .text          0x00000000        0x0 c:/program files/microchip/xc32/v2.41/bin/bin/../../lib/gcc/pic32c/6.2.1/../../../../pic32c/lib\libc_nano.a(lib_a-__ssputs.o)
 .data          0x00000000        0x0 c:/program files/microchip/xc32/v2.41/bin/bin/../../lib/gcc/pic32c/6.2.1/../../../../pic32c/lib\libc_nano.a(lib_a-__ssputs.o)
 .bss           0x00000000        0x0 c:/program files/microchip/xc32/v2.41/bin/bin/../../lib/gcc/pic32c/6.2.1/../../../../pic32c/lib\libc_nano.a(lib_a-__ssputs.o)
 .text          0x00000000        0x0 c:/program files/microchip/xc32/v2.41/bin/bin/../../lib/gcc/pic32c/6.2.1/../../../../pic32c/lib\libc_nano.a(lib_a-stdio.o)
 .data          0x00000000        0x0 c:/program files/microchip/xc32/v2.41/bin/bin/../../lib/gcc/pic32c/6.2.1/../../../../pic32c/lib\libc_nano.a(lib_a-stdio.o)
 .bss           0x00000000        0x0 c:/program files/microchip/xc32/v2.41/bin/bin/../../lib/gcc/pic32c/6.2.1/../../../../pic32c/lib\libc_nano.a(lib_a-stdio.o)
 .text.__seofread
                0x00000000        0x4 c:/program files/microchip/xc32/v2.41/bin/bin/../../lib/gcc/pic32c/6.2.1/../../../../pic32c/lib\libc_nano.a(lib_a-stdio.o)
 .text          0x00000000        0x0 c:/program files/microchip/xc32/v2.41/bin/bin/../../lib/gcc/pic32c/6.2.1/../../../../pic32c/lib\libc_nano.a(lib_a-wbuf.o)
 .data          0x00000000        0x0 c:/program files/microchip/xc32/v2.41/bin/bin/../../lib/gcc/pic32c/6.2.1/../../../../pic32c/lib\libc_nano.a(lib_a-wbuf.o)
 .bss           0x00000000        0x0 c:/program files/microchip/xc32/v2.41/bin/bin/../../lib/gcc/pic32c/6.2.1/../../../../pic32c/lib\libc_nano.a(lib_a-wbuf.o)
 .text.__swbuf  0x00000000       0x14 c:/program files/microchip/xc32/v2.41/bin/bin/../../lib/gcc/pic32c/6.2.1/../../../../pic32c/lib\libc_nano.a(lib_a-wbuf.o)
 .text          0x00000000        0x0 c:/program files/microchip/xc32/v2.41/bin/bin/../../lib/gcc/pic32c/6.2.1/../../../../pic32c/lib\libc_nano.a(lib_a-writer.o)
 .data          0x00000000        0x0 c:/program files/microchip/xc32/v2.41/bin/bin/../../lib/gcc/pic32c/6.2.1/../../../../pic32c/lib\libc_nano.a(lib_a-writer.o)
 .bss           0x00000000        0x0 c:/program files/microchip/xc32/v2.41/bin/bin/../../lib/gcc/pic32c/6.2.1/../../../../pic32c/lib\libc_nano.a(lib_a-writer.o)
 .text          0x00000000        0x0 c:/program files/microchip/xc32/v2.41/bin/bin/../../lib/gcc/pic32c/6.2.1/../../../../pic32c/lib\libc_nano.a(lib_a-wsetup.o)
 .data          0x00000000        0x0 c:/program files/microchip/xc32/v2.41/bin/bin/../../lib/gcc/pic32c/6.2.1/../../../../pic32c/lib\libc_nano.a(lib_a-wsetup.o)
 .bss           0x00000000        0x0 c:/program files/microchip/xc32/v2.41/bin/bin/../../lib/gcc/pic32c/6.2.1/../../../../pic32c/lib\libc_nano.a(lib_a-wsetup.o)
 .text          0x00000000        0x0 c:/program files/microchip/xc32/v2.41/bin/bin/../../lib/gcc/pic32c/6.2.1/../../../../pic32c/lib\libc_nano.a(lib_a-closer.o)
 .data          0x00000000        0x0 c:/program files/microchip/xc32/v2.41/bin/bin/../../lib/gcc/pic32c/6.2.1/../../../../pic32c/lib\libc_nano.a(lib_a-closer.o)
 .bss           0x00000000        0x0 c:/program files/microchip/xc32/v2.41/bin/bin/../../lib/gcc/pic32c/6.2.1/../../../../pic32c/lib\libc_nano.a(lib_a-closer.o)
 .text          0x00000000        0x0 c:/program files/microchip/xc32/v2.41/bin/bin/../../lib/gcc/pic32c/6.2.1/../../../../pic32c/lib\libc_nano.a(lib_a-dtoa.o)
 .data          0x00000000        0x0 c:/program files/microchip/xc32/v2.41/bin/bin/../../lib/gcc/pic32c/6.2.1/../../../../pic32c/lib\libc_nano.a(lib_a-dtoa.o)
 .bss           0x00000000        0x0 c:/program files/microchip/xc32/v2.41/bin/bin/../../lib/gcc/pic32c/6.2.1/../../../../pic32c/lib\libc_nano.a(lib_a-dtoa.o)
 .text          0x00000000        0x0 c:/program files/microchip/xc32/v2.41/bin/bin/../../lib/gcc/pic32c/6.2.1/../../../../pic32c/lib\libc_nano.a(lib_a-fputwc.o)
 .data          0x00000000        0x0 c:/program files/microchip/xc32/v2.41/bin/bin/../../lib/gcc/pic32c/6.2.1/../../../../pic32c/lib\libc_nano.a(lib_a-fputwc.o)
 .bss           0x00000000        0x0 c:/program files/microchip/xc32/v2.41/bin/bin/../../lib/gcc/pic32c/6.2.1/../../../../pic32c/lib\libc_nano.a(lib_a-fputwc.o)
 .text.fputwc   0x00000000       0x54 c:/program files/microchip/xc32/v2.41/bin/bin/../../lib/gcc/pic32c/6.2.1/../../../../pic32c/lib\libc_nano.a(lib_a-fputwc.o)
 .text          0x00000000        0x0 c:/program files/microchip/xc32/v2.41/bin/bin/../../lib/gcc/pic32c/6.2.1/../../../../pic32c/lib\libc_nano.a(lib_a-fstatr.o)
 .data          0x00000000        0x0 c:/program files/microchip/xc32/v2.41/bin/bin/../../lib/gcc/pic32c/6.2.1/../../../../pic32c/lib\libc_nano.a(lib_a-fstatr.o)
 .bss           0x00000000        0x0 c:/program files/microchip/xc32/v2.41/bin/bin/../../lib/gcc/pic32c/6.2.1/../../../../pic32c/lib\libc_nano.a(lib_a-fstatr.o)
 .text          0x00000000        0x0 c:/program files/microchip/xc32/v2.41/bin/bin/../../lib/gcc/pic32c/6.2.1/../../../../pic32c/lib\libc_nano.a(lib_a-isattyr.o)
 .data          0x00000000        0x0 c:/program files/microchip/xc32/v2.41/bin/bin/../../lib/gcc/pic32c/6.2.1/../../../../pic32c/lib\libc_nano.a(lib_a-isattyr.o)
 .bss           0x00000000        0x0 c:/program files/microchip/xc32/v2.41/bin/bin/../../lib/gcc/pic32c/6.2.1/../../../../pic32c/lib\libc_nano.a(lib_a-isattyr.o)
 .text          0x00000000        0x0 c:/program files/microchip/xc32/v2.41/bin/bin/../../lib/gcc/pic32c/6.2.1/../../../../pic32c/lib\libc_nano.a(lib_a-localeconv.o)
 .data          0x00000000        0x0 c:/program files/microchip/xc32/v2.41/bin/bin/../../lib/gcc/pic32c/6.2.1/../../../../pic32c/lib\libc_nano.a(lib_a-localeconv.o)
 .bss           0x00000000        0x0 c:/program files/microchip/xc32/v2.41/bin/bin/../../lib/gcc/pic32c/6.2.1/../../../../pic32c/lib\libc_nano.a(lib_a-localeconv.o)
 .text.__localeconv_l
                0x00000000        0x4 c:/program files/microchip/xc32/v2.41/bin/bin/../../lib/gcc/pic32c/6.2.1/../../../../pic32c/lib\libc_nano.a(lib_a-localeconv.o)
 .text.localeconv
                0x00000000       0x18 c:/program files/microchip/xc32/v2.41/bin/bin/../../lib/gcc/pic32c/6.2.1/../../../../pic32c/lib\libc_nano.a(lib_a-localeconv.o)
 .text          0x00000000        0x0 c:/program files/microchip/xc32/v2.41/bin/bin/../../lib/gcc/pic32c/6.2.1/../../../../pic32c/lib\libc_nano.a(lib_a-locale.o)
 .data          0x00000000        0x0 c:/program files/microchip/xc32/v2.41/bin/bin/../../lib/gcc/pic32c/6.2.1/../../../../pic32c/lib\libc_nano.a(lib_a-locale.o)
 .bss           0x00000000        0x0 c:/program files/microchip/xc32/v2.41/bin/bin/../../lib/gcc/pic32c/6.2.1/../../../../pic32c/lib\libc_nano.a(lib_a-locale.o)
 .text._setlocale_r
                0x00000000       0x3c c:/program files/microchip/xc32/v2.41/bin/bin/../../lib/gcc/pic32c/6.2.1/../../../../pic32c/lib\libc_nano.a(lib_a-locale.o)
 .text.__locale_ctype_ptr_l
                0x00000000        0x6 c:/program files/microchip/xc32/v2.41/bin/bin/../../lib/gcc/pic32c/6.2.1/../../../../pic32c/lib\libc_nano.a(lib_a-locale.o)
 .text.setlocale
                0x00000000       0x14 c:/program files/microchip/xc32/v2.41/bin/bin/../../lib/gcc/pic32c/6.2.1/../../../../pic32c/lib\libc_nano.a(lib_a-locale.o)
 .bss._PathLocale
                0x00000000        0x4 c:/program files/microchip/xc32/v2.41/bin/bin/../../lib/gcc/pic32c/6.2.1/../../../../pic32c/lib\libc_nano.a(lib_a-locale.o)
 .text          0x00000000        0x0 c:/program files/microchip/xc32/v2.41/bin/bin/../../lib/gcc/pic32c/6.2.1/../../../../pic32c/lib\libc_nano.a(lib_a-lseekr.o)
 .data          0x00000000        0x0 c:/program files/microchip/xc32/v2.41/bin/bin/../../lib/gcc/pic32c/6.2.1/../../../../pic32c/lib\libc_nano.a(lib_a-lseekr.o)
 .bss           0x00000000        0x0 c:/program files/microchip/xc32/v2.41/bin/bin/../../lib/gcc/pic32c/6.2.1/../../../../pic32c/lib\libc_nano.a(lib_a-lseekr.o)
 .text          0x00000000        0x0 c:/program files/microchip/xc32/v2.41/bin/bin/../../lib/gcc/pic32c/6.2.1/../../../../pic32c/lib\libc_nano.a(lib_a-mbtowc_r.o)
 .data          0x00000000        0x0 c:/program files/microchip/xc32/v2.41/bin/bin/../../lib/gcc/pic32c/6.2.1/../../../../pic32c/lib\libc_nano.a(lib_a-mbtowc_r.o)
 .bss           0x00000000        0x0 c:/program files/microchip/xc32/v2.41/bin/bin/../../lib/gcc/pic32c/6.2.1/../../../../pic32c/lib\libc_nano.a(lib_a-mbtowc_r.o)
 .text._mbtowc_r
                0x00000000       0x24 c:/program files/microchip/xc32/v2.41/bin/bin/../../lib/gcc/pic32c/6.2.1/../../../../pic32c/lib\libc_nano.a(lib_a-mbtowc_r.o)
 .text          0x00000000        0x0 c:/program files/microchip/xc32/v2.41/bin/bin/../../lib/gcc/pic32c/6.2.1/../../../../pic32c/lib\libc_nano.a(lib_a-memchr-stub.o)
 .data          0x00000000        0x0 c:/program files/microchip/xc32/v2.41/bin/bin/../../lib/gcc/pic32c/6.2.1/../../../../pic32c/lib\libc_nano.a(lib_a-memchr-stub.o)
 .bss           0x00000000        0x0 c:/program files/microchip/xc32/v2.41/bin/bin/../../lib/gcc/pic32c/6.2.1/../../../../pic32c/lib\libc_nano.a(lib_a-memchr-stub.o)
 .text          0x00000000        0x0 c:/program files/microchip/xc32/v2.41/bin/bin/../../lib/gcc/pic32c/6.2.1/../../../../pic32c/lib\libc_nano.a(lib_a-memmove.o)
 .data          0x00000000        0x0 c:/program files/microchip/xc32/v2.41/bin/bin/../../lib/gcc/pic32c/6.2.1/../../../../pic32c/lib\libc_nano.a(lib_a-memmove.o)
 .bss           0x00000000        0x0 c:/program files/microchip/xc32/v2.41/bin/bin/../../lib/gcc/pic32c/6.2.1/../../../../pic32c/lib\libc_nano.a(lib_a-memmove.o)
 .text          0x00000000        0x0 c:/program files/microchip/xc32/v2.41/bin/bin/../../lib/gcc/pic32c/6.2.1/../../../../pic32c/lib\libc_nano.a(lib_a-mprec.o)
 .data          0x00000000        0x0 c:/program files/microchip/xc32/v2.41/bin/bin/../../lib/gcc/pic32c/6.2.1/../../../../pic32c/lib\libc_nano.a(lib_a-mprec.o)
 .bss           0x00000000        0x0 c:/program files/microchip/xc32/v2.41/bin/bin/../../lib/gcc/pic32c/6.2.1/../../../../pic32c/lib\libc_nano.a(lib_a-mprec.o)
 .text.__s2b    0x00000000       0x7e c:/program files/microchip/xc32/v2.41/bin/bin/../../lib/gcc/pic32c/6.2.1/../../../../pic32c/lib\libc_nano.a(lib_a-mprec.o)
 .text.__ulp    0x00000000       0x4c c:/program files/microchip/xc32/v2.41/bin/bin/../../lib/gcc/pic32c/6.2.1/../../../../pic32c/lib\libc_nano.a(lib_a-mprec.o)
 .text.__b2d    0x00000000       0x98 c:/program files/microchip/xc32/v2.41/bin/bin/../../lib/gcc/pic32c/6.2.1/../../../../pic32c/lib\libc_nano.a(lib_a-mprec.o)
 .text.__ratio  0x00000000       0x4e c:/program files/microchip/xc32/v2.41/bin/bin/../../lib/gcc/pic32c/6.2.1/../../../../pic32c/lib\libc_nano.a(lib_a-mprec.o)
 .text._mprec_log10
                0x00000000       0x34 c:/program files/microchip/xc32/v2.41/bin/bin/../../lib/gcc/pic32c/6.2.1/../../../../pic32c/lib\libc_nano.a(lib_a-mprec.o)
 .text.__copybits
                0x00000000       0x2c c:/program files/microchip/xc32/v2.41/bin/bin/../../lib/gcc/pic32c/6.2.1/../../../../pic32c/lib\libc_nano.a(lib_a-mprec.o)
 .text.__any_on
                0x00000000       0x44 c:/program files/microchip/xc32/v2.41/bin/bin/../../lib/gcc/pic32c/6.2.1/../../../../pic32c/lib\libc_nano.a(lib_a-mprec.o)
 .rodata.__mprec_tinytens
                0x00000000       0x28 c:/program files/microchip/xc32/v2.41/bin/bin/../../lib/gcc/pic32c/6.2.1/../../../../pic32c/lib\libc_nano.a(lib_a-mprec.o)
 .text          0x00000000        0x0 c:/program files/microchip/xc32/v2.41/bin/bin/../../lib/gcc/pic32c/6.2.1/../../../../pic32c/lib\libc_nano.a(lib_a-nano-callocr.o)
 .data          0x00000000        0x0 c:/program files/microchip/xc32/v2.41/bin/bin/../../lib/gcc/pic32c/6.2.1/../../../../pic32c/lib\libc_nano.a(lib_a-nano-callocr.o)
 .bss           0x00000000        0x0 c:/program files/microchip/xc32/v2.41/bin/bin/../../lib/gcc/pic32c/6.2.1/../../../../pic32c/lib\libc_nano.a(lib_a-nano-callocr.o)
 .text          0x00000000        0x0 c:/program files/microchip/xc32/v2.41/bin/bin/../../lib/gcc/pic32c/6.2.1/../../../../pic32c/lib\libc_nano.a(lib_a-nano-reallocr.o)
 .data          0x00000000        0x0 c:/program files/microchip/xc32/v2.41/bin/bin/../../lib/gcc/pic32c/6.2.1/../../../../pic32c/lib\libc_nano.a(lib_a-nano-reallocr.o)
 .bss           0x00000000        0x0 c:/program files/microchip/xc32/v2.41/bin/bin/../../lib/gcc/pic32c/6.2.1/../../../../pic32c/lib\libc_nano.a(lib_a-nano-reallocr.o)
 .text          0x00000000        0x0 c:/program files/microchip/xc32/v2.41/bin/bin/../../lib/gcc/pic32c/6.2.1/../../../../pic32c/lib\libc_nano.a(lib_a-readr.o)
 .data          0x00000000        0x0 c:/program files/microchip/xc32/v2.41/bin/bin/../../lib/gcc/pic32c/6.2.1/../../../../pic32c/lib\libc_nano.a(lib_a-readr.o)
 .bss           0x00000000        0x0 c:/program files/microchip/xc32/v2.41/bin/bin/../../lib/gcc/pic32c/6.2.1/../../../../pic32c/lib\libc_nano.a(lib_a-readr.o)
 .text          0x00000000        0x0 c:/program files/microchip/xc32/v2.41/bin/bin/../../lib/gcc/pic32c/6.2.1/../../../../pic32c/lib\libc_nano.a(lib_a-wcrtomb.o)
 .data          0x00000000        0x0 c:/program files/microchip/xc32/v2.41/bin/bin/../../lib/gcc/pic32c/6.2.1/../../../../pic32c/lib\libc_nano.a(lib_a-wcrtomb.o)
 .bss           0x00000000        0x0 c:/program files/microchip/xc32/v2.41/bin/bin/../../lib/gcc/pic32c/6.2.1/../../../../pic32c/lib\libc_nano.a(lib_a-wcrtomb.o)
 .text.wcrtomb  0x00000000       0x18 c:/program files/microchip/xc32/v2.41/bin/bin/../../lib/gcc/pic32c/6.2.1/../../../../pic32c/lib\libc_nano.a(lib_a-wcrtomb.o)
 .text          0x00000000        0x0 c:/program files/microchip/xc32/v2.41/bin/bin/../../lib/gcc/pic32c/6.2.1/../../../../pic32c/lib\libc_nano.a(lib_a-wctomb_r.o)
 .data          0x00000000        0x0 c:/program files/microchip/xc32/v2.41/bin/bin/../../lib/gcc/pic32c/6.2.1/../../../../pic32c/lib\libc_nano.a(lib_a-wctomb_r.o)
 .bss           0x00000000        0x0 c:/program files/microchip/xc32/v2.41/bin/bin/../../lib/gcc/pic32c/6.2.1/../../../../pic32c/lib\libc_nano.a(lib_a-wctomb_r.o)
 .text._wctomb_r
                0x00000000       0x20 c:/program files/microchip/xc32/v2.41/bin/bin/../../lib/gcc/pic32c/6.2.1/../../../../pic32c/lib\libc_nano.a(lib_a-wctomb_r.o)
 .text          0x00000000        0x0 c:/program files/microchip/xc32/v2.41/bin/bin/../../lib/gcc/pic32c/6.2.1/../../../../pic32c/lib\libc_nano.a(lib_a-ctype_.o)
 .data          0x00000000        0x0 c:/program files/microchip/xc32/v2.41/bin/bin/../../lib/gcc/pic32c/6.2.1/../../../../pic32c/lib\libc_nano.a(lib_a-ctype_.o)
 .bss           0x00000000        0x0 c:/program files/microchip/xc32/v2.41/bin/bin/../../lib/gcc/pic32c/6.2.1/../../../../pic32c/lib\libc_nano.a(lib_a-ctype_.o)
 .text          0x00000000        0x0 c:/program files/microchip/xc32/v2.41/bin/bin/../../lib/gcc/pic32c/6.2.1/../../../../pic32c/lib\libc_nano.a(lib_a-nano-msizer.o)
 .data          0x00000000        0x0 c:/program files/microchip/xc32/v2.41/bin/bin/../../lib/gcc/pic32c/6.2.1/../../../../pic32c/lib\libc_nano.a(lib_a-nano-msizer.o)
 .bss           0x00000000        0x0 c:/program files/microchip/xc32/v2.41/bin/bin/../../lib/gcc/pic32c/6.2.1/../../../../pic32c/lib\libc_nano.a(lib_a-nano-msizer.o)
 .text          0x00000000        0x0 c:/program files/microchip/xc32/v2.41/bin/bin/../../lib/gcc/pic32c/6.2.1/../../../../pic32c/lib\libpic32c.a(_close.o)
 .data          0x00000000        0x0 c:/program files/microchip/xc32/v2.41/bin/bin/../../lib/gcc/pic32c/6.2.1/../../../../pic32c/lib\libpic32c.a(_close.o)
 .bss           0x00000000        0x0 c:/program files/microchip/xc32/v2.41/bin/bin/../../lib/gcc/pic32c/6.2.1/../../../../pic32c/lib\libpic32c.a(_close.o)
 .text          0x00000000        0x0 c:/program files/microchip/xc32/v2.41/bin/bin/../../lib/gcc/pic32c/6.2.1/../../../../pic32c/lib\libpic32c.a(_fstat.o)
 .data          0x00000000        0x0 c:/program files/microchip/xc32/v2.41/bin/bin/../../lib/gcc/pic32c/6.2.1/../../../../pic32c/lib\libpic32c.a(_fstat.o)
 .bss           0x00000000        0x0 c:/program files/microchip/xc32/v2.41/bin/bin/../../lib/gcc/pic32c/6.2.1/../../../../pic32c/lib\libpic32c.a(_fstat.o)
 .text          0x00000000        0x0 c:/program files/microchip/xc32/v2.41/bin/bin/../../lib/gcc/pic32c/6.2.1/../../../../pic32c/lib\libpic32c.a(_isatty.o)
 .data          0x00000000        0x0 c:/program files/microchip/xc32/v2.41/bin/bin/../../lib/gcc/pic32c/6.2.1/../../../../pic32c/lib\libpic32c.a(_isatty.o)
 .bss           0x00000000        0x0 c:/program files/microchip/xc32/v2.41/bin/bin/../../lib/gcc/pic32c/6.2.1/../../../../pic32c/lib\libpic32c.a(_isatty.o)
 .text          0x00000000        0x0 c:/program files/microchip/xc32/v2.41/bin/bin/../../lib/gcc/pic32c/6.2.1/../../../../pic32c/lib\libpic32c.a(_lseek.o)
 .data          0x00000000        0x0 c:/program files/microchip/xc32/v2.41/bin/bin/../../lib/gcc/pic32c/6.2.1/../../../../pic32c/lib\libpic32c.a(_lseek.o)
 .bss           0x00000000        0x0 c:/program files/microchip/xc32/v2.41/bin/bin/../../lib/gcc/pic32c/6.2.1/../../../../pic32c/lib\libpic32c.a(_lseek.o)
 .text          0x00000000        0x0 c:/program files/microchip/xc32/v2.41/bin/bin/../../lib/gcc/pic32c/6.2.1/../../../../pic32c/lib\libpic32c.a(_read.o)
 .data          0x00000000        0x0 c:/program files/microchip/xc32/v2.41/bin/bin/../../lib/gcc/pic32c/6.2.1/../../../../pic32c/lib\libpic32c.a(_read.o)
 .bss           0x00000000        0x0 c:/program files/microchip/xc32/v2.41/bin/bin/../../lib/gcc/pic32c/6.2.1/../../../../pic32c/lib\libpic32c.a(_read.o)
 .text          0x00000000        0x0 c:/program files/microchip/xc32/v2.41/bin/bin/../../lib/gcc/pic32c/6.2.1/../../../../pic32c/lib\libpic32c.a(sbrk.o)
 .data          0x00000000        0x0 c:/program files/microchip/xc32/v2.41/bin/bin/../../lib/gcc/pic32c/6.2.1/../../../../pic32c/lib\libpic32c.a(sbrk.o)
 .text          0x00000000        0x0 c:/program files/microchip/xc32/v2.41/bin/bin/../../lib/gcc/pic32c/6.2.1/../../../../pic32c/lib\libpic32c.a(_write.o)
 .data          0x00000000        0x0 c:/program files/microchip/xc32/v2.41/bin/bin/../../lib/gcc/pic32c/6.2.1/../../../../pic32c/lib\libpic32c.a(_write.o)
 .bss           0x00000000        0x0 c:/program files/microchip/xc32/v2.41/bin/bin/../../lib/gcc/pic32c/6.2.1/../../../../pic32c/lib\libpic32c.a(_write.o)
 .text          0x00000000        0x0 c:/program files/microchip/xc32/v2.41/bin/bin/../../lib/gcc/pic32c/6.2.1/../../../../pic32c/lib\libpic32c.a(close.o)
 .data          0x00000000        0x0 c:/program files/microchip/xc32/v2.41/bin/bin/../../lib/gcc/pic32c/6.2.1/../../../../pic32c/lib\libpic32c.a(close.o)
 .bss           0x00000000        0x0 c:/program files/microchip/xc32/v2.41/bin/bin/../../lib/gcc/pic32c/6.2.1/../../../../pic32c/lib\libpic32c.a(close.o)
 .gnu.warning.closestub
                0x00000000        0x0 c:/program files/microchip/xc32/v2.41/bin/bin/../../lib/gcc/pic32c/6.2.1/../../../../pic32c/lib\libpic32c.a(close.o)
 .text          0x00000000        0x0 c:/program files/microchip/xc32/v2.41/bin/bin/../../lib/gcc/pic32c/6.2.1/../../../../pic32c/lib\libpic32c.a(fstat.o)
 .data          0x00000000        0x0 c:/program files/microchip/xc32/v2.41/bin/bin/../../lib/gcc/pic32c/6.2.1/../../../../pic32c/lib\libpic32c.a(fstat.o)
 .bss           0x00000000        0x0 c:/program files/microchip/xc32/v2.41/bin/bin/../../lib/gcc/pic32c/6.2.1/../../../../pic32c/lib\libpic32c.a(fstat.o)
 .text          0x00000000        0x0 c:/program files/microchip/xc32/v2.41/bin/bin/../../lib/gcc/pic32c/6.2.1/../../../../pic32c/lib\libpic32c.a(isatty.o)
 .data          0x00000000        0x0 c:/program files/microchip/xc32/v2.41/bin/bin/../../lib/gcc/pic32c/6.2.1/../../../../pic32c/lib\libpic32c.a(isatty.o)
 .bss           0x00000000        0x0 c:/program files/microchip/xc32/v2.41/bin/bin/../../lib/gcc/pic32c/6.2.1/../../../../pic32c/lib\libpic32c.a(isatty.o)
 .text          0x00000000        0x0 c:/program files/microchip/xc32/v2.41/bin/bin/../../lib/gcc/pic32c/6.2.1/../../../../pic32c/lib\libpic32c.a(lseek.o)
 .data          0x00000000        0x0 c:/program files/microchip/xc32/v2.41/bin/bin/../../lib/gcc/pic32c/6.2.1/../../../../pic32c/lib\libpic32c.a(lseek.o)
 .bss           0x00000000        0x0 c:/program files/microchip/xc32/v2.41/bin/bin/../../lib/gcc/pic32c/6.2.1/../../../../pic32c/lib\libpic32c.a(lseek.o)
 .text          0x00000000        0x0 c:/program files/microchip/xc32/v2.41/bin/bin/../../lib/gcc/pic32c/6.2.1/../../../../pic32c/lib\libpic32c.a(read.o)
 .data          0x00000000        0x0 c:/program files/microchip/xc32/v2.41/bin/bin/../../lib/gcc/pic32c/6.2.1/../../../../pic32c/lib\libpic32c.a(read.o)
 .bss           0x00000000        0x0 c:/program files/microchip/xc32/v2.41/bin/bin/../../lib/gcc/pic32c/6.2.1/../../../../pic32c/lib\libpic32c.a(read.o)
 .text          0x00000000        0x0 c:/program files/microchip/xc32/v2.41/bin/bin/../../lib/gcc/pic32c/6.2.1/../../../../pic32c/lib\libpic32c.a(write.o)
 .data          0x00000000        0x0 c:/program files/microchip/xc32/v2.41/bin/bin/../../lib/gcc/pic32c/6.2.1/../../../../pic32c/lib\libpic32c.a(write.o)
 .bss           0x00000000        0x0 c:/program files/microchip/xc32/v2.41/bin/bin/../../lib/gcc/pic32c/6.2.1/../../../../pic32c/lib\libpic32c.a(write.o)
 .data          0x00000000        0x0 c:/program files/microchip/xc32/v2.41/bin/bin/../../lib/gcc/pic32c/6.2.1\libgcc.a(_thumb1_case_uqi.o)
 .bss           0x00000000        0x0 c:/program files/microchip/xc32/v2.41/bin/bin/../../lib/gcc/pic32c/6.2.1\libgcc.a(_thumb1_case_uqi.o)
 .data          0x00000000        0x0 c:/program files/microchip/xc32/v2.41/bin/bin/../../lib/gcc/pic32c/6.2.1\libgcc.a(_arm_cmpdf2.o)
 .bss           0x00000000        0x0 c:/program files/microchip/xc32/v2.41/bin/bin/../../lib/gcc/pic32c/6.2.1\libgcc.a(_arm_cmpdf2.o)
 .data          0x00000000        0x0 c:/program files/microchip/xc32/v2.41/bin/bin/../../lib/gcc/pic32c/6.2.1\libgcc.a(adddf3.o)
 .bss           0x00000000        0x0 c:/program files/microchip/xc32/v2.41/bin/bin/../../lib/gcc/pic32c/6.2.1\libgcc.a(adddf3.o)
 .data          0x00000000        0x0 c:/program files/microchip/xc32/v2.41/bin/bin/../../lib/gcc/pic32c/6.2.1\libgcc.a(divdf3.o)
 .bss           0x00000000        0x0 c:/program files/microchip/xc32/v2.41/bin/bin/../../lib/gcc/pic32c/6.2.1\libgcc.a(divdf3.o)
 .data          0x00000000        0x0 c:/program files/microchip/xc32/v2.41/bin/bin/../../lib/gcc/pic32c/6.2.1\libgcc.a(eqdf2.o)
 .bss           0x00000000        0x0 c:/program files/microchip/xc32/v2.41/bin/bin/../../lib/gcc/pic32c/6.2.1\libgcc.a(eqdf2.o)
 .data          0x00000000        0x0 c:/program files/microchip/xc32/v2.41/bin/bin/../../lib/gcc/pic32c/6.2.1\libgcc.a(gedf2.o)
 .bss           0x00000000        0x0 c:/program files/microchip/xc32/v2.41/bin/bin/../../lib/gcc/pic32c/6.2.1\libgcc.a(gedf2.o)
 .data          0x00000000        0x0 c:/program files/microchip/xc32/v2.41/bin/bin/../../lib/gcc/pic32c/6.2.1\libgcc.a(ledf2.o)
 .bss           0x00000000        0x0 c:/program files/microchip/xc32/v2.41/bin/bin/../../lib/gcc/pic32c/6.2.1\libgcc.a(ledf2.o)
 .data          0x00000000        0x0 c:/program files/microchip/xc32/v2.41/bin/bin/../../lib/gcc/pic32c/6.2.1\libgcc.a(muldf3.o)
 .bss           0x00000000        0x0 c:/program files/microchip/xc32/v2.41/bin/bin/../../lib/gcc/pic32c/6.2.1\libgcc.a(muldf3.o)
 .data          0x00000000        0x0 c:/program files/microchip/xc32/v2.41/bin/bin/../../lib/gcc/pic32c/6.2.1\libgcc.a(subdf3.o)
 .bss           0x00000000        0x0 c:/program files/microchip/xc32/v2.41/bin/bin/../../lib/gcc/pic32c/6.2.1\libgcc.a(subdf3.o)
 .data          0x00000000        0x0 c:/program files/microchip/xc32/v2.41/bin/bin/../../lib/gcc/pic32c/6.2.1\libgcc.a(unorddf2.o)
 .bss           0x00000000        0x0 c:/program files/microchip/xc32/v2.41/bin/bin/../../lib/gcc/pic32c/6.2.1\libgcc.a(unorddf2.o)
 .data          0x00000000        0x0 c:/program files/microchip/xc32/v2.41/bin/bin/../../lib/gcc/pic32c/6.2.1\libgcc.a(fixdfsi.o)
 .bss           0x00000000        0x0 c:/program files/microchip/xc32/v2.41/bin/bin/../../lib/gcc/pic32c/6.2.1\libgcc.a(fixdfsi.o)
 .data          0x00000000        0x0 c:/program files/microchip/xc32/v2.41/bin/bin/../../lib/gcc/pic32c/6.2.1\libgcc.a(floatsidf.o)
 .bss           0x00000000        0x0 c:/program files/microchip/xc32/v2.41/bin/bin/../../lib/gcc/pic32c/6.2.1\libgcc.a(floatsidf.o)
 .data          0x00000000        0x0 c:/program files/microchip/xc32/v2.41/bin/bin/../../lib/gcc/pic32c/6.2.1\libgcc.a(floatunsidf.o)
 .bss           0x00000000        0x0 c:/program files/microchip/xc32/v2.41/bin/bin/../../lib/gcc/pic32c/6.2.1\libgcc.a(floatunsidf.o)
 .data          0x00000000        0x0 c:/program files/microchip/xc32/v2.41/bin/bin/../../lib/gcc/pic32c/6.2.1\libgcc.a(_thumb1_case_uhi.o)
 .bss           0x00000000        0x0 c:/program files/microchip/xc32/v2.41/bin/bin/../../lib/gcc/pic32c/6.2.1\libgcc.a(_thumb1_case_uhi.o)
 .text          0x00000000        0x0 c:/program files/microchip/xc32/v2.41/bin/bin/../../lib/gcc/pic32c/6.2.1/crtend.o
 .data          0x00000000        0x0 c:/program files/microchip/xc32/v2.41/bin/bin/../../lib/gcc/pic32c/6.2.1/crtend.o
 .bss           0x00000000        0x0 c:/program files/microchip/xc32/v2.41/bin/bin/../../lib/gcc/pic32c/6.2.1/crtend.o
 .eh_frame      0x00000000        0x4 c:/program files/microchip/xc32/v2.41/bin/bin/../../lib/gcc/pic32c/6.2.1/crtend.o
 .comment       0x00000000       0x3d c:/program files/microchip/xc32/v2.41/bin/bin/../../lib/gcc/pic32c/6.2.1/crtend.o
 .ARM.attributes
                0x00000000       0x2c c:/program files/microchip/xc32/v2.41/bin/bin/../../lib/gcc/pic32c/6.2.1/crtend.o
 .text          0x00000000        0x0 c:/program files/microchip/xc32/v2.41/bin/bin/../../lib/gcc/pic32c/6.2.1/crtn.o
 .data          0x00000000        0x0 c:/program files/microchip/xc32/v2.41/bin/bin/../../lib/gcc/pic32c/6.2.1/crtn.o
 .bss           0x00000000        0x0 c:/program files/microchip/xc32/v2.41/bin/bin/../../lib/gcc/pic32c/6.2.1/crtn.o

Memory Configuration

Name             Origin             Length             Attributes
rom              0x00000000         0x00040000         xrl
ram              0x20000000         0x00008000         xw !r
config_00804000  0x00804000         0x00000004
config_00804004  0x00804004         0x00000004
*default*        0x00000000         0xffffffff

Linker script and memory map

LOAD c:/program files/microchip/xc32/v2.41/bin/bin/../../lib/gcc/pic32c/6.2.1/crti.o
LOAD c:/program files/microchip/xc32/v2.41/bin/bin/../../lib/gcc/pic32c/6.2.1/crtbegin.o
LOAD build/default/production/_ext/1593096446/plib_nvmctrl.o
LOAD build/default/production/_ext/308758920/usb_host_msd.o
LOAD build/default/production/_ext/308758920/usb_host_scsi.o
LOAD build/default/production/_ext/1986646378/plib_evsys.o
LOAD build/default/production/_ext/1360937237/main.o
LOAD build/default/production/_ext/1171490990/initialization.o
LOAD build/default/production/_ext/1171490990/interrupts.o
LOAD build/default/production/_ext/1171490990/exceptions.o
LOAD build/default/production/_ext/163028504/xc32_monitor.o
LOAD build/default/production/_ext/1865521619/plib_port.o
LOAD build/default/production/_ext/1984496892/plib_clock.o
LOAD build/default/production/_ext/1865468468/plib_nvic.o
LOAD build/default/production/_ext/1171490990/startup_xc32.o
LOAD build/default/production/_ext/1171490990/libc_syscalls.o
LOAD build/default/production/_ext/504274921/plib_sercom5_usart.o
LOAD build/default/production/_ext/829342655/plib_tc3.o
LOAD build/default/production/_ext/101884895/sys_time.o
LOAD build/default/production/_ext/1171490990/usb_host_init_data.o
LOAD build/default/production/_ext/308758920/usb_host.o
LOAD build/default/production/_ext/1269487135/sys_fs.o
LOAD build/default/production/_ext/1269487135/sys_fs_media_manager.o
LOAD build/default/production/_ext/1269487135/sys_fs_fat_interface.o
LOAD build/default/production/_ext/411819097/ff.o
LOAD build/default/production/_ext/411819097/ffunicode.o
LOAD build/default/production/_ext/565198302/diskio.o
LOAD build/default/production/_ext/818654064/drv_usbfsv1.o
LOAD build/default/production/_ext/818654064/drv_usbfsv1_host.o
LOAD build/default/production/_ext/1881668453/sys_int.o
LOAD build/default/production/_ext/1360937237/app.o
LOAD build/default/production/_ext/1171490990/tasks.o
                0x00000001                __MPLAB_BUILD = 0x1
                0x00040000                __rom_end = (ORIGIN (rom) + LENGTH (rom))
                0x20008000                __ram_end = (ORIGIN (ram) + LENGTH (ram))

.config_00804000
                0x00804000        0x4
 *(.config_00804000)
 .config_00804000
                0x00804000        0x4 build/default/production/_ext/1171490990/initialization.o

.config_00804004
                0x00804004        0x4
 *(.config_00804004)
 .config_00804004
                0x00804004        0x4 build/default/production/_ext/1171490990/initialization.o

.vectors        0x00000000       0xb0
                0x00000000                . = ALIGN (0x4)
                0x00000000                _sfixed = .
 *(.vectors .vectors.* .vectors_default .vectors_default.*)
 .vectors       0x00000000       0xb0 build/default/production/_ext/1171490990/interrupts.o
                0x00000000                exception_table
 *(.isr_vector)
 *(.reset*)
 *(.after_vectors)

.text           0x000000b0       0x20
                0x000000b0                . = ALIGN (0x4)
 *(.glue_7t)
 .glue_7t       0x000000b0        0x0 linker stubs
 *(.glue_7)
 .glue_7        0x000000b0        0x0 linker stubs
 *(.gnu.linkonce.r.*)
 *(.ARM.extab* .gnu.linkonce.armextab.*)
                0x000000b0                . = ALIGN (0x4)
 *(.init)
 .init          0x000000b0        0x4 c:/program files/microchip/xc32/v2.41/bin/bin/../../lib/gcc/pic32c/6.2.1/crti.o
                0x000000b0                _init
 .init          0x000000b4        0x8 c:/program files/microchip/xc32/v2.41/bin/bin/../../lib/gcc/pic32c/6.2.1/crtn.o
                0x000000bc                . = ALIGN (0x4)
                0x000000bc                __preinit_array_start = .
 *(.preinit_array)
                0x000000bc                __preinit_array_end = .
                0x000000bc                . = ALIGN (0x4)
                0x000000bc                __init_array_start = .
 *(SORT(.init_array.*))
 *(.init_array)
 .init_array    0x000000bc        0x4 c:/program files/microchip/xc32/v2.41/bin/bin/../../lib/gcc/pic32c/6.2.1/crtbegin.o
                0x000000c0                __init_array_end = .
                0x000000c0                . = ALIGN (0x4)
 *crtbegin.o(.ctors)
 *(EXCLUDE_FILE(*crtend.o) .ctors)
 *(SORT(.ctors.*))
 *crtend.o(.ctors)
                0x000000c0                . = ALIGN (0x4)
 *(.fini)
 .fini          0x000000c0        0x4 c:/program files/microchip/xc32/v2.41/bin/bin/../../lib/gcc/pic32c/6.2.1/crti.o
                0x000000c0                _fini
 .fini          0x000000c4        0x8 c:/program files/microchip/xc32/v2.41/bin/bin/../../lib/gcc/pic32c/6.2.1/crtn.o
                0x000000cc                . = ALIGN (0x4)
                0x000000cc                __fini_array_start = .
 *(.fini_array)
 .fini_array    0x000000cc        0x4 c:/program files/microchip/xc32/v2.41/bin/bin/../../lib/gcc/pic32c/6.2.1/crtbegin.o
 *(SORT(.fini_array.*))
                0x000000d0                __fini_array_end = .
 *crtbegin.o(.dtors)
 *(EXCLUDE_FILE(*crtend.o) .dtors)
 *(SORT(.dtors.*))
 *crtend.o(.dtors)
                0x000000d0                . = ALIGN (0x4)
                0x000000d0                _efixed = .
                [!provide]                PROVIDE (__exidx_start, .)

.ARM.exidx      0x000000d0        0x8
 *(.ARM.exidx* .gnu.linkonce.armexidx.*)
 .ARM.exidx     0x000000d0        0x8 c:/program files/microchip/xc32/v2.41/bin/bin/../../lib/gcc/pic32c/6.2.1\libgcc.a(_udivmoddi4.o)
                [!provide]                PROVIDE (__exidx_end, .)
                0x000000d8                . = ALIGN (0x4)
                0x000000d8                _etext = .

.bss            0x20000000      0xa74
                0x20000000                . = ALIGN (0x4)
                0x20000000                __bss_start__ = .
                0x20000000                _sbss = .
                0x20000000                _szero = .
 *(COMMON)
 COMMON         0x20000000       0x94 build/default/production/_ext/308758920/usb_host_msd.o
                0x20000000                gUSBHostMSDCBW
                0x20000020                gUSBHostMSDInstance
                0x20000084                gUSBHostMSDCSW
 COMMON         0x20000094      0x1d4 build/default/production/_ext/308758920/usb_host_scsi.o
                0x20000094                gUSBHostSCSIObj
                0x2000015c                gUSBHostSCSIAttachListener
                0x20000168                gUSBSCSIBuffer
 COMMON         0x20000268        0xc build/default/production/_ext/1171490990/initialization.o
                0x20000268                sysObj
 COMMON         0x20000274        0x8 build/default/production/_ext/829342655/plib_tc3.o
                0x20000274                TC3_CallbackObject
 COMMON         0x2000027c      0x148 build/default/production/_ext/1269487135/sys_fs.o
                0x2000027c                gSysFsMutex
                0x20000280                gSYSFSFileObj
                0x20000390                gSYSFSDirObj
                0x200003a0                gSYSFSCurrentMountPoint
                0x200003a8                gSYSFSObj
                0x200003b0                errorValue
                0x200003b4                gSYSFSMountPoint
 COMMON         0x200003c4      0x248 build/default/production/_ext/1269487135/sys_fs_media_manager.o
                0x200003c4                gSYSFSMediaObject
                0x200003ec                VolToPart
                0x200003f0                gSYSFSMediaBuffer
                0x200005f0                gSYSFSVolumeObject
 COMMON         0x2000060c      0x198 build/default/production/_ext/818654064/drv_usbfsv1.o
                0x2000060c                gDrvUSBObj
 COMMON         0x200007a4      0x2c0 build/default/production/_ext/818654064/drv_usbfsv1_host.o
                0x200007a4                pipeDescriptorTable
                0x20000884                gDrvUSBHostPipeObj
 COMMON         0x20000a64        0xc build/default/production/_ext/1360937237/app.o
                0x20000a64                appData
 COMMON         0x20000a70        0x4 c:/program files/microchip/xc32/v2.41/bin/bin/../../lib/gcc/pic32c/6.2.1/../../../../pic32c/lib\libc_nano.a(lib_a-reent.o)
                0x20000a70                errno
                0x20000a74                . = ALIGN (0x4)
                0x20000a74                __bss_end__ = .
                0x20000a74                _ebss = .
                0x20000a74                _ezero = .
                0x20000a74                . = ALIGN (0x4)
                0x20000a74                _end = .
                0x20007fff                _ram_end_ = ((ORIGIN (ram) + LENGTH (ram)) - 0x1)
                0x00000200                _min_heap_size = 0x200
START GROUP
LOAD c:/program files/microchip/xc32/v2.41/bin/bin/../../lib/gcc/pic32c/6.2.1/../../../../pic32c/lib\libpic32c.a
LOAD c:/program files/microchip/xc32/v2.41/bin/bin/../../lib/gcc/pic32c/6.2.1\libgcc.a
LOAD c:/program files/microchip/xc32/v2.41/bin/bin/../../lib/gcc/pic32c/6.2.1/../../../../pic32c/lib\libm_nano.a
LOAD c:/program files/microchip/xc32/v2.41/bin/bin/../../lib/gcc/pic32c/6.2.1/../../../../pic32c/lib\libc_nano.a
END GROUP
LOAD c:/program files/microchip/xc32/v2.41/bin/bin/../../lib/gcc/pic32c/6.2.1/crtend.o
LOAD c:/program files/microchip/xc32/v2.41/bin/bin/../../lib/gcc/pic32c/6.2.1/crtn.o
OUTPUT(dist/default/production/samd21_usb_msd.X.production.elf elf32-littlearm)
LOAD stack
LOAD data_init

.ARM.attributes
                0x00000000       0x28
 .ARM.attributes
                0x00000000       0x1e c:/program files/microchip/xc32/v2.41/bin/bin/../../lib/gcc/pic32c/6.2.1/crti.o
 .ARM.attributes
                0x0000001e       0x2c c:/program files/microchip/xc32/v2.41/bin/bin/../../lib/gcc/pic32c/6.2.1/crtbegin.o
 .ARM.attributes
                0x0000004a       0x32 build/default/production/_ext/1593096446/plib_nvmctrl.o
 .ARM.attributes
                0x0000007c       0x32 build/default/production/_ext/308758920/usb_host_msd.o
 .ARM.attributes
                0x000000ae       0x32 build/default/production/_ext/308758920/usb_host_scsi.o
 .ARM.attributes
                0x000000e0       0x32 build/default/production/_ext/1986646378/plib_evsys.o
 .ARM.attributes
                0x00000112       0x32 build/default/production/_ext/1360937237/main.o
 .ARM.attributes
                0x00000144       0x32 build/default/production/_ext/1171490990/initialization.o
 .ARM.attributes
                0x00000176       0x32 build/default/production/_ext/1171490990/interrupts.o
 .ARM.attributes
                0x000001a8       0x32 build/default/production/_ext/1171490990/exceptions.o
 .ARM.attributes
                0x000001da       0x32 build/default/production/_ext/163028504/xc32_monitor.o
 .ARM.attributes
                0x0000020c       0x32 build/default/production/_ext/1865521619/plib_port.o
 .ARM.attributes
                0x0000023e       0x32 build/default/production/_ext/1984496892/plib_clock.o
 .ARM.attributes
                0x00000270       0x32 build/default/production/_ext/1865468468/plib_nvic.o
 .ARM.attributes
                0x000002a2       0x32 build/default/production/_ext/1171490990/startup_xc32.o
 .ARM.attributes
                0x000002d4       0x32 build/default/production/_ext/504274921/plib_sercom5_usart.o
 .ARM.attributes
                0x00000306       0x32 build/default/production/_ext/829342655/plib_tc3.o
 .ARM.attributes
                0x00000338       0x32 build/default/production/_ext/101884895/sys_time.o
 .ARM.attributes
                0x0000036a       0x32 build/default/production/_ext/1171490990/usb_host_init_data.o
 .ARM.attributes
                0x0000039c       0x32 build/default/production/_ext/308758920/usb_host.o
 .ARM.attributes
                0x000003ce       0x32 build/default/production/_ext/1269487135/sys_fs.o
 .ARM.attributes
                0x00000400       0x32 build/default/production/_ext/1269487135/sys_fs_media_manager.o
 .ARM.attributes
                0x00000432       0x32 build/default/production/_ext/1269487135/sys_fs_fat_interface.o
 .ARM.attributes
                0x00000464       0x32 build/default/production/_ext/411819097/ff.o
 .ARM.attributes
                0x00000496       0x32 build/default/production/_ext/411819097/ffunicode.o
 .ARM.attributes
                0x000004c8       0x32 build/default/production/_ext/565198302/diskio.o
 .ARM.attributes
                0x000004fa       0x32 build/default/production/_ext/818654064/drv_usbfsv1.o
 .ARM.attributes
                0x0000052c       0x32 build/default/production/_ext/818654064/drv_usbfsv1_host.o
 .ARM.attributes
                0x0000055e       0x32 build/default/production/_ext/1881668453/sys_int.o
 .ARM.attributes
                0x00000590       0x32 build/default/production/_ext/1360937237/app.o
 .ARM.attributes
                0x000005c2       0x32 build/default/production/_ext/1171490990/tasks.o
 .ARM.attributes
                0x000005f4       0x2c c:/program files/microchip/xc32/v2.41/bin/bin/../../lib/gcc/pic32c/6.2.1/../../../../pic32c/lib\libpic32c.a(data_init.o)
 .ARM.attributes
                0x00000620       0x1e c:/program files/microchip/xc32/v2.41/bin/bin/../../lib/gcc/pic32c/6.2.1\libgcc.a(_udivsi3.o)
 .ARM.attributes
                0x0000063e       0x1e c:/program files/microchip/xc32/v2.41/bin/bin/../../lib/gcc/pic32c/6.2.1\libgcc.a(_divsi3.o)
 .ARM.attributes
                0x0000065c       0x1e c:/program files/microchip/xc32/v2.41/bin/bin/../../lib/gcc/pic32c/6.2.1\libgcc.a(_dvmd_tls.o)
 .ARM.attributes
                0x0000067a       0x1e c:/program files/microchip/xc32/v2.41/bin/bin/../../lib/gcc/pic32c/6.2.1\libgcc.a(_aeabi_uldivmod.o)
 .ARM.attributes
                0x00000698       0x2c c:/program files/microchip/xc32/v2.41/bin/bin/../../lib/gcc/pic32c/6.2.1\libgcc.a(_muldi3.o)
 .ARM.attributes
                0x000006c4       0x2c c:/program files/microchip/xc32/v2.41/bin/bin/../../lib/gcc/pic32c/6.2.1\libgcc.a(_udivmoddi4.o)
 .ARM.attributes
                0x000006f0       0x1e c:/program files/microchip/xc32/v2.41/bin/bin/../../lib/gcc/pic32c/6.2.1\libgcc.a(_lshrdi3.o)
 .ARM.attributes
                0x0000070e       0x1e c:/program files/microchip/xc32/v2.41/bin/bin/../../lib/gcc/pic32c/6.2.1\libgcc.a(_ashldi3.o)
 .ARM.attributes
                0x0000072c       0x1e c:/program files/microchip/xc32/v2.41/bin/bin/../../lib/gcc/pic32c/6.2.1\libgcc.a(_clzdi2.o)
 .ARM.attributes
                0x0000074a       0x1e c:/program files/microchip/xc32/v2.41/bin/bin/../../lib/gcc/pic32c/6.2.1\libgcc.a(_clzsi2.o)
 .ARM.attributes
                0x00000768       0x2c c:/program files/microchip/xc32/v2.41/bin/bin/../../lib/gcc/pic32c/6.2.1/../../../../pic32c/lib\libc_nano.a(lib_a-impure.o)
 .ARM.attributes
                0x00000794       0x2c c:/program files/microchip/xc32/v2.41/bin/bin/../../lib/gcc/pic32c/6.2.1/../../../../pic32c/lib\libc_nano.a(lib_a-init.o)
 .ARM.attributes
                0x000007c0       0x2c c:/program files/microchip/xc32/v2.41/bin/bin/../../lib/gcc/pic32c/6.2.1/../../../../pic32c/lib\libc_nano.a(lib_a-malloc.o)
 .ARM.attributes
                0x000007ec       0x2c c:/program files/microchip/xc32/v2.41/bin/bin/../../lib/gcc/pic32c/6.2.1/../../../../pic32c/lib\libc_nano.a(lib_a-memcpy-stub.o)
 .ARM.attributes
                0x00000818       0x2c c:/program files/microchip/xc32/v2.41/bin/bin/../../lib/gcc/pic32c/6.2.1/../../../../pic32c/lib\libc_nano.a(lib_a-memset.o)
 .ARM.attributes
                0x00000844       0x2c c:/program files/microchip/xc32/v2.41/bin/bin/../../lib/gcc/pic32c/6.2.1/../../../../pic32c/lib\libc_nano.a(lib_a-nano-freer.o)
 .ARM.attributes
                0x00000870       0x2c c:/program files/microchip/xc32/v2.41/bin/bin/../../lib/gcc/pic32c/6.2.1/../../../../pic32c/lib\libc_nano.a(lib_a-nano-mallocr.o)
 .ARM.attributes
                0x0000089c       0x2c c:/program files/microchip/xc32/v2.41/bin/bin/../../lib/gcc/pic32c/6.2.1/../../../../pic32c/lib\libc_nano.a(lib_a-printf.o)
 .ARM.attributes
                0x000008c8       0x2c c:/program files/microchip/xc32/v2.41/bin/bin/../../lib/gcc/pic32c/6.2.1/../../../../pic32c/lib\libc_nano.a(lib_a-sbrkr.o)
 .ARM.attributes
                0x000008f4       0x2c c:/program files/microchip/xc32/v2.41/bin/bin/../../lib/gcc/pic32c/6.2.1/../../../../pic32c/lib\libc_nano.a(_lib_a-scanf.s.o)
 .ARM.attributes
                0x00000920       0x2c c:/program files/microchip/xc32/v2.41/bin/bin/../../lib/gcc/pic32c/6.2.1/../../../../pic32c/lib\libc_nano.a(lib_a-setbuf.o)
 .ARM.attributes
                0x0000094c       0x2c c:/program files/microchip/xc32/v2.41/bin/bin/../../lib/gcc/pic32c/6.2.1/../../../../pic32c/lib\libc_nano.a(lib_a-setvbuf.o)
 .ARM.attributes
                0x00000978       0x2c c:/program files/microchip/xc32/v2.41/bin/bin/../../lib/gcc/pic32c/6.2.1/../../../../pic32c/lib\libc_nano.a(lib_a-sprintf.o)
 .ARM.attributes
                0x000009a4       0x1c c:/program files/microchip/xc32/v2.41/bin/bin/../../lib/gcc/pic32c/6.2.1/../../../../pic32c/lib\libc_nano.a(lib_a-strcmp.o)
 .ARM.attributes
                0x000009c0       0x1c c:/program files/microchip/xc32/v2.41/bin/bin/../../lib/gcc/pic32c/6.2.1/../../../../pic32c/lib\libc_nano.a(lib_a-strlen.o)
 .ARM.attributes
                0x000009dc       0x2c c:/program files/microchip/xc32/v2.41/bin/bin/../../lib/gcc/pic32c/6.2.1/../../../../pic32c/lib\libc_nano.a(lib_a-strncmp.o)
 .ARM.attributes
                0x00000a08       0x2c c:/program files/microchip/xc32/v2.41/bin/bin/../../lib/gcc/pic32c/6.2.1/../../../../pic32c/lib\libc_nano.a(lib_a-strncpy.o)
 .ARM.attributes
                0x00000a34       0x2c c:/program files/microchip/xc32/v2.41/bin/bin/../../lib/gcc/pic32c/6.2.1/../../../../pic32c/lib\libc_nano.a(lib_a-fflush.o)
 .ARM.attributes
                0x00000a60       0x2c c:/program files/microchip/xc32/v2.41/bin/bin/../../lib/gcc/pic32c/6.2.1/../../../../pic32c/lib\libc_nano.a(lib_a-findfp.o)
 .ARM.attributes
                0x00000a8c       0x2c c:/program files/microchip/xc32/v2.41/bin/bin/../../lib/gcc/pic32c/6.2.1/../../../../pic32c/lib\libc_nano.a(lib_a-fwalk.o)
 .ARM.attributes
                0x00000ab8       0x2c c:/program files/microchip/xc32/v2.41/bin/bin/../../lib/gcc/pic32c/6.2.1/../../../../pic32c/lib\libc_nano.a(lib_a-makebuf.o)
 .ARM.attributes
                0x00000ae4       0x2c c:/program files/microchip/xc32/v2.41/bin/bin/../../lib/gcc/pic32c/6.2.1/../../../../pic32c/lib\libc_nano.a(lib_a-mlock.o)
 .ARM.attributes
                0x00000b10       0x2c c:/program files/microchip/xc32/v2.41/bin/bin/../../lib/gcc/pic32c/6.2.1/../../../../pic32c/lib\libc_nano.a(lib_a-nano-svfprintf.o)
 .ARM.attributes
                0x00000b3c       0x2c c:/program files/microchip/xc32/v2.41/bin/bin/../../lib/gcc/pic32c/6.2.1/../../../../pic32c/lib\libc_nano.a(_lib_a-nano-vfprintf.cdeEfFgGnopsuxX.o)
 .ARM.attributes
                0x00000b68       0x2c c:/program files/microchip/xc32/v2.41/bin/bin/../../lib/gcc/pic32c/6.2.1/../../../../pic32c/lib\libc_nano.a(lib_a-nano-vfprintf_i.o)
 .ARM.attributes
                0x00000b94       0x2c c:/program files/microchip/xc32/v2.41/bin/bin/../../lib/gcc/pic32c/6.2.1/../../../../pic32c/lib\libc_nano.a(lib_a-nano-vfprintf.o)
 .ARM.attributes
                0x00000bc0       0x2c c:/program files/microchip/xc32/v2.41/bin/bin/../../lib/gcc/pic32c/6.2.1/../../../../pic32c/lib\libc_nano.a(_lib_a-nano-vfscanf.s.o)
 .ARM.attributes
                0x00000bec       0x2c c:/program files/microchip/xc32/v2.41/bin/bin/../../lib/gcc/pic32c/6.2.1/../../../../pic32c/lib\libc_nano.a(lib_a-reent.o)
 .ARM.attributes
                0x00000c18       0x2c c:/program files/microchip/xc32/v2.41/bin/bin/../../lib/gcc/pic32c/6.2.1/../../../../pic32c/lib\libc_nano.a(lib_a-refill.o)
 .ARM.attributes
                0x00000c44       0x2c c:/program files/microchip/xc32/v2.41/bin/bin/../../lib/gcc/pic32c/6.2.1/../../../../pic32c/lib\libc_nano.a(lib_a-sccl.o)
 .ARM.attributes
                0x00000c70       0x2c c:/program files/microchip/xc32/v2.41/bin/bin/../../lib/gcc/pic32c/6.2.1/../../../../pic32c/lib\libc_nano.a(lib_a-__ssfputs.o)
 .ARM.attributes
                0x00000c9c       0x2c c:/program files/microchip/xc32/v2.41/bin/bin/../../lib/gcc/pic32c/6.2.1/../../../../pic32c/lib\libc_nano.a(lib_a-__ssputs.o)
 .ARM.attributes
                0x00000cc8       0x2c c:/program files/microchip/xc32/v2.41/bin/bin/../../lib/gcc/pic32c/6.2.1/../../../../pic32c/lib\libc_nano.a(lib_a-stdio.o)
 .ARM.attributes
                0x00000cf4       0x2c c:/program files/microchip/xc32/v2.41/bin/bin/../../lib/gcc/pic32c/6.2.1/../../../../pic32c/lib\libc_nano.a(lib_a-wbuf.o)
 .ARM.attributes
                0x00000d20       0x2c c:/program files/microchip/xc32/v2.41/bin/bin/../../lib/gcc/pic32c/6.2.1/../../../../pic32c/lib\libc_nano.a(lib_a-writer.o)
 .ARM.attributes
                0x00000d4c       0x2c c:/program files/microchip/xc32/v2.41/bin/bin/../../lib/gcc/pic32c/6.2.1/../../../../pic32c/lib\libc_nano.a(lib_a-wsetup.o)
 .ARM.attributes
                0x00000d78       0x2c c:/program files/microchip/xc32/v2.41/bin/bin/../../lib/gcc/pic32c/6.2.1/../../../../pic32c/lib\libc_nano.a(lib_a-closer.o)
 .ARM.attributes
                0x00000da4       0x2c c:/program files/microchip/xc32/v2.41/bin/bin/../../lib/gcc/pic32c/6.2.1/../../../../pic32c/lib\libc_nano.a(lib_a-dtoa.o)
 .ARM.attributes
                0x00000dd0       0x2c c:/program files/microchip/xc32/v2.41/bin/bin/../../lib/gcc/pic32c/6.2.1/../../../../pic32c/lib\libc_nano.a(lib_a-fputwc.o)
 .ARM.attributes
                0x00000dfc       0x2c c:/program files/microchip/xc32/v2.41/bin/bin/../../lib/gcc/pic32c/6.2.1/../../../../pic32c/lib\libc_nano.a(lib_a-fstatr.o)
 .ARM.attributes
                0x00000e28       0x2c c:/program files/microchip/xc32/v2.41/bin/bin/../../lib/gcc/pic32c/6.2.1/../../../../pic32c/lib\libc_nano.a(lib_a-isattyr.o)
 .ARM.attributes
                0x00000e54       0x2c c:/program files/microchip/xc32/v2.41/bin/bin/../../lib/gcc/pic32c/6.2.1/../../../../pic32c/lib\libc_nano.a(lib_a-localeconv.o)
 .ARM.attributes
                0x00000e80       0x2c c:/program files/microchip/xc32/v2.41/bin/bin/../../lib/gcc/pic32c/6.2.1/../../../../pic32c/lib\libc_nano.a(lib_a-locale.o)
 .ARM.attributes
                0x00000eac       0x2c c:/program files/microchip/xc32/v2.41/bin/bin/../../lib/gcc/pic32c/6.2.1/../../../../pic32c/lib\libc_nano.a(lib_a-lseekr.o)
 .ARM.attributes
                0x00000ed8       0x2c c:/program files/microchip/xc32/v2.41/bin/bin/../../lib/gcc/pic32c/6.2.1/../../../../pic32c/lib\libc_nano.a(lib_a-mbtowc_r.o)
 .ARM.attributes
                0x00000f04       0x2c c:/program files/microchip/xc32/v2.41/bin/bin/../../lib/gcc/pic32c/6.2.1/../../../../pic32c/lib\libc_nano.a(lib_a-memchr-stub.o)
 .ARM.attributes
                0x00000f30       0x2c c:/program files/microchip/xc32/v2.41/bin/bin/../../lib/gcc/pic32c/6.2.1/../../../../pic32c/lib\libc_nano.a(lib_a-memmove.o)
 .ARM.attributes
                0x00000f5c       0x2c c:/program files/microchip/xc32/v2.41/bin/bin/../../lib/gcc/pic32c/6.2.1/../../../../pic32c/lib\libc_nano.a(lib_a-mprec.o)
 .ARM.attributes
                0x00000f88       0x2c c:/program files/microchip/xc32/v2.41/bin/bin/../../lib/gcc/pic32c/6.2.1/../../../../pic32c/lib\libc_nano.a(lib_a-nano-callocr.o)
 .ARM.attributes
                0x00000fb4       0x2c c:/program files/microchip/xc32/v2.41/bin/bin/../../lib/gcc/pic32c/6.2.1/../../../../pic32c/lib\libc_nano.a(lib_a-nano-reallocr.o)
 .ARM.attributes
                0x00000fe0       0x2c c:/program files/microchip/xc32/v2.41/bin/bin/../../lib/gcc/pic32c/6.2.1/../../../../pic32c/lib\libc_nano.a(lib_a-readr.o)
 .ARM.attributes
                0x0000100c       0x2c c:/program files/microchip/xc32/v2.41/bin/bin/../../lib/gcc/pic32c/6.2.1/../../../../pic32c/lib\libc_nano.a(lib_a-wcrtomb.o)
 .ARM.attributes
                0x00001038       0x2c c:/program files/microchip/xc32/v2.41/bin/bin/../../lib/gcc/pic32c/6.2.1/../../../../pic32c/lib\libc_nano.a(lib_a-wctomb_r.o)
 .ARM.attributes
                0x00001064       0x2c c:/program files/microchip/xc32/v2.41/bin/bin/../../lib/gcc/pic32c/6.2.1/../../../../pic32c/lib\libc_nano.a(lib_a-ctype_.o)
 .ARM.attributes
                0x00001090       0x2c c:/program files/microchip/xc32/v2.41/bin/bin/../../lib/gcc/pic32c/6.2.1/../../../../pic32c/lib\libc_nano.a(lib_a-nano-msizer.o)
 .ARM.attributes
                0x000010bc       0x2c c:/program files/microchip/xc32/v2.41/bin/bin/../../lib/gcc/pic32c/6.2.1/../../../../pic32c/lib\libpic32c.a(_close.o)
 .ARM.attributes
                0x000010e8       0x2c c:/program files/microchip/xc32/v2.41/bin/bin/../../lib/gcc/pic32c/6.2.1/../../../../pic32c/lib\libpic32c.a(_fstat.o)
 .ARM.attributes
                0x00001114       0x2c c:/program files/microchip/xc32/v2.41/bin/bin/../../lib/gcc/pic32c/6.2.1/../../../../pic32c/lib\libpic32c.a(_isatty.o)
 .ARM.attributes
                0x00001140       0x2c c:/program files/microchip/xc32/v2.41/bin/bin/../../lib/gcc/pic32c/6.2.1/../../../../pic32c/lib\libpic32c.a(_lseek.o)
 .ARM.attributes
                0x0000116c       0x2c c:/program files/microchip/xc32/v2.41/bin/bin/../../lib/gcc/pic32c/6.2.1/../../../../pic32c/lib\libpic32c.a(_read.o)
 .ARM.attributes
                0x00001198       0x2c c:/program files/microchip/xc32/v2.41/bin/bin/../../lib/gcc/pic32c/6.2.1/../../../../pic32c/lib\libpic32c.a(sbrk.o)
 .ARM.attributes
                0x000011c4       0x2c c:/program files/microchip/xc32/v2.41/bin/bin/../../lib/gcc/pic32c/6.2.1/../../../../pic32c/lib\libpic32c.a(_write.o)
 .ARM.attributes
                0x000011f0       0x2c c:/program files/microchip/xc32/v2.41/bin/bin/../../lib/gcc/pic32c/6.2.1/../../../../pic32c/lib\libpic32c.a(close.o)
 .ARM.attributes
                0x0000121c       0x2c c:/program files/microchip/xc32/v2.41/bin/bin/../../lib/gcc/pic32c/6.2.1/../../../../pic32c/lib\libpic32c.a(fstat.o)
 .ARM.attributes
                0x00001248       0x2c c:/program files/microchip/xc32/v2.41/bin/bin/../../lib/gcc/pic32c/6.2.1/../../../../pic32c/lib\libpic32c.a(isatty.o)
 .ARM.attributes
                0x00001274       0x2c c:/program files/microchip/xc32/v2.41/bin/bin/../../lib/gcc/pic32c/6.2.1/../../../../pic32c/lib\libpic32c.a(lseek.o)
 .ARM.attributes
                0x000012a0       0x2c c:/program files/microchip/xc32/v2.41/bin/bin/../../lib/gcc/pic32c/6.2.1/../../../../pic32c/lib\libpic32c.a(read.o)
 .ARM.attributes
                0x000012cc       0x2c c:/program files/microchip/xc32/v2.41/bin/bin/../../lib/gcc/pic32c/6.2.1/../../../../pic32c/lib\libpic32c.a(write.o)
 .ARM.attributes
                0x000012f8       0x1e c:/program files/microchip/xc32/v2.41/bin/bin/../../lib/gcc/pic32c/6.2.1\libgcc.a(_thumb1_case_uqi.o)
 .ARM.attributes
                0x00001316       0x1e c:/program files/microchip/xc32/v2.41/bin/bin/../../lib/gcc/pic32c/6.2.1\libgcc.a(_arm_cmpdf2.o)
 .ARM.attributes
                0x00001334       0x2c c:/program files/microchip/xc32/v2.41/bin/bin/../../lib/gcc/pic32c/6.2.1\libgcc.a(adddf3.o)
 .ARM.attributes
                0x00001360       0x2c c:/program files/microchip/xc32/v2.41/bin/bin/../../lib/gcc/pic32c/6.2.1\libgcc.a(divdf3.o)
 .ARM.attributes
                0x0000138c       0x2c c:/program files/microchip/xc32/v2.41/bin/bin/../../lib/gcc/pic32c/6.2.1\libgcc.a(eqdf2.o)
 .ARM.attributes
                0x000013b8       0x2c c:/program files/microchip/xc32/v2.41/bin/bin/../../lib/gcc/pic32c/6.2.1\libgcc.a(gedf2.o)
 .ARM.attributes
                0x000013e4       0x2c c:/program files/microchip/xc32/v2.41/bin/bin/../../lib/gcc/pic32c/6.2.1\libgcc.a(ledf2.o)
 .ARM.attributes
                0x00001410       0x2c c:/program files/microchip/xc32/v2.41/bin/bin/../../lib/gcc/pic32c/6.2.1\libgcc.a(muldf3.o)
 .ARM.attributes
                0x0000143c       0x2c c:/program files/microchip/xc32/v2.41/bin/bin/../../lib/gcc/pic32c/6.2.1\libgcc.a(subdf3.o)
 .ARM.attributes
                0x00001468       0x2c c:/program files/microchip/xc32/v2.41/bin/bin/../../lib/gcc/pic32c/6.2.1\libgcc.a(unorddf2.o)
 .ARM.attributes
                0x00001494       0x2c c:/program files/microchip/xc32/v2.41/bin/bin/../../lib/gcc/pic32c/6.2.1\libgcc.a(fixdfsi.o)
 .ARM.attributes
                0x000014c0       0x2c c:/program files/microchip/xc32/v2.41/bin/bin/../../lib/gcc/pic32c/6.2.1\libgcc.a(floatsidf.o)
 .ARM.attributes
                0x000014ec       0x2c c:/program files/microchip/xc32/v2.41/bin/bin/../../lib/gcc/pic32c/6.2.1\libgcc.a(floatunsidf.o)
 .ARM.attributes
                0x00001518       0x1e c:/program files/microchip/xc32/v2.41/bin/bin/../../lib/gcc/pic32c/6.2.1\libgcc.a(_thumb1_case_uhi.o)
 .ARM.attributes
                0x00001536       0x1e c:/program files/microchip/xc32/v2.41/bin/bin/../../lib/gcc/pic32c/6.2.1/crtn.o

.comment        0x00000000       0x3c
 .comment       0x00000000       0x3c c:/program files/microchip/xc32/v2.41/bin/bin/../../lib/gcc/pic32c/6.2.1/crtbegin.o
                                 0x3d (size before relaxing)
 .comment       0x0000003c       0x3d build/default/production/_ext/1593096446/plib_nvmctrl.o
 .comment       0x0000003c       0x3d build/default/production/_ext/308758920/usb_host_msd.o
 .comment       0x0000003c       0x3d build/default/production/_ext/308758920/usb_host_scsi.o
 .comment       0x0000003c       0x3d build/default/production/_ext/1986646378/plib_evsys.o
 .comment       0x0000003c       0x3d build/default/production/_ext/1360937237/main.o
 .comment       0x0000003c       0x3d build/default/production/_ext/1171490990/initialization.o
 .comment       0x0000003c       0x3d build/default/production/_ext/1171490990/interrupts.o
 .comment       0x0000003c       0x3d build/default/production/_ext/1171490990/exceptions.o
 .comment       0x0000003c       0x3d build/default/production/_ext/163028504/xc32_monitor.o
 .comment       0x0000003c       0x3d build/default/production/_ext/1865521619/plib_port.o
 .comment       0x0000003c       0x3d build/default/production/_ext/1984496892/plib_clock.o
 .comment       0x0000003c       0x3d build/default/production/_ext/1865468468/plib_nvic.o
 .comment       0x0000003c       0x3d build/default/production/_ext/1171490990/startup_xc32.o
 .comment       0x0000003c       0x3d build/default/production/_ext/504274921/plib_sercom5_usart.o
 .comment       0x0000003c       0x3d build/default/production/_ext/829342655/plib_tc3.o
 .comment       0x0000003c       0x3d build/default/production/_ext/101884895/sys_time.o
 .comment       0x0000003c       0x3d build/default/production/_ext/1171490990/usb_host_init_data.o
 .comment       0x0000003c       0x3d build/default/production/_ext/308758920/usb_host.o
 .comment       0x0000003c       0x3d build/default/production/_ext/1269487135/sys_fs.o
 .comment       0x0000003c       0x3d build/default/production/_ext/1269487135/sys_fs_media_manager.o
 .comment       0x0000003c       0x3d build/default/production/_ext/1269487135/sys_fs_fat_interface.o
 .comment       0x0000003c       0x3d build/default/production/_ext/411819097/ff.o
 .comment       0x0000003c       0x3d build/default/production/_ext/411819097/ffunicode.o
 .comment       0x0000003c       0x3d build/default/production/_ext/565198302/diskio.o
 .comment       0x0000003c       0x3d build/default/production/_ext/818654064/drv_usbfsv1.o
 .comment       0x0000003c       0x3d build/default/production/_ext/818654064/drv_usbfsv1_host.o
 .comment       0x0000003c       0x3d build/default/production/_ext/1881668453/sys_int.o
 .comment       0x0000003c       0x3d build/default/production/_ext/1360937237/app.o
 .comment       0x0000003c       0x3d build/default/production/_ext/1171490990/tasks.o
 .comment       0x0000003c       0x3d c:/program files/microchip/xc32/v2.41/bin/bin/../../lib/gcc/pic32c/6.2.1/../../../../pic32c/lib\libpic32c.a(data_init.o)
 .comment       0x0000003c       0x3d c:/program files/microchip/xc32/v2.41/bin/bin/../../lib/gcc/pic32c/6.2.1\libgcc.a(_muldi3.o)
 .comment       0x0000003c       0x3d c:/program files/microchip/xc32/v2.41/bin/bin/../../lib/gcc/pic32c/6.2.1\libgcc.a(_udivmoddi4.o)
 .comment       0x0000003c       0x3d c:/program files/microchip/xc32/v2.41/bin/bin/../../lib/gcc/pic32c/6.2.1/../../../../pic32c/lib\libc_nano.a(lib_a-impure.o)
 .comment       0x0000003c       0x3d c:/program files/microchip/xc32/v2.41/bin/bin/../../lib/gcc/pic32c/6.2.1/../../../../pic32c/lib\libc_nano.a(lib_a-init.o)
 .comment       0x0000003c       0x3d c:/program files/microchip/xc32/v2.41/bin/bin/../../lib/gcc/pic32c/6.2.1/../../../../pic32c/lib\libc_nano.a(lib_a-malloc.o)
 .comment       0x0000003c       0x3d c:/program files/microchip/xc32/v2.41/bin/bin/../../lib/gcc/pic32c/6.2.1/../../../../pic32c/lib\libc_nano.a(lib_a-memcpy-stub.o)
 .comment       0x0000003c       0x3d c:/program files/microchip/xc32/v2.41/bin/bin/../../lib/gcc/pic32c/6.2.1/../../../../pic32c/lib\libc_nano.a(lib_a-memset.o)
 .comment       0x0000003c       0x3d c:/program files/microchip/xc32/v2.41/bin/bin/../../lib/gcc/pic32c/6.2.1/../../../../pic32c/lib\libc_nano.a(lib_a-nano-freer.o)
 .comment       0x0000003c       0x3d c:/program files/microchip/xc32/v2.41/bin/bin/../../lib/gcc/pic32c/6.2.1/../../../../pic32c/lib\libc_nano.a(lib_a-nano-mallocr.o)
 .comment       0x0000003c       0x3d c:/program files/microchip/xc32/v2.41/bin/bin/../../lib/gcc/pic32c/6.2.1/../../../../pic32c/lib\libc_nano.a(lib_a-printf.o)
 .comment       0x0000003c       0x3d c:/program files/microchip/xc32/v2.41/bin/bin/../../lib/gcc/pic32c/6.2.1/../../../../pic32c/lib\libc_nano.a(lib_a-sbrkr.o)
 .comment       0x0000003c       0x3d c:/program files/microchip/xc32/v2.41/bin/bin/../../lib/gcc/pic32c/6.2.1/../../../../pic32c/lib\libc_nano.a(_lib_a-scanf.s.o)
 .comment       0x0000003c       0x3d c:/program files/microchip/xc32/v2.41/bin/bin/../../lib/gcc/pic32c/6.2.1/../../../../pic32c/lib\libc_nano.a(lib_a-setbuf.o)
 .comment       0x0000003c       0x3d c:/program files/microchip/xc32/v2.41/bin/bin/../../lib/gcc/pic32c/6.2.1/../../../../pic32c/lib\libc_nano.a(lib_a-setvbuf.o)
 .comment       0x0000003c       0x3d c:/program files/microchip/xc32/v2.41/bin/bin/../../lib/gcc/pic32c/6.2.1/../../../../pic32c/lib\libc_nano.a(lib_a-sprintf.o)
 .comment       0x0000003c       0x3d c:/program files/microchip/xc32/v2.41/bin/bin/../../lib/gcc/pic32c/6.2.1/../../../../pic32c/lib\libc_nano.a(lib_a-strncmp.o)
 .comment       0x0000003c       0x3d c:/program files/microchip/xc32/v2.41/bin/bin/../../lib/gcc/pic32c/6.2.1/../../../../pic32c/lib\libc_nano.a(lib_a-strncpy.o)
 .comment       0x0000003c       0x3d c:/program files/microchip/xc32/v2.41/bin/bin/../../lib/gcc/pic32c/6.2.1/../../../../pic32c/lib\libc_nano.a(lib_a-fflush.o)
 .comment       0x0000003c       0x3d c:/program files/microchip/xc32/v2.41/bin/bin/../../lib/gcc/pic32c/6.2.1/../../../../pic32c/lib\libc_nano.a(lib_a-findfp.o)
 .comment       0x0000003c       0x3d c:/program files/microchip/xc32/v2.41/bin/bin/../../lib/gcc/pic32c/6.2.1/../../../../pic32c/lib\libc_nano.a(lib_a-fwalk.o)
 .comment       0x0000003c       0x3d c:/program files/microchip/xc32/v2.41/bin/bin/../../lib/gcc/pic32c/6.2.1/../../../../pic32c/lib\libc_nano.a(lib_a-makebuf.o)
 .comment       0x0000003c       0x3d c:/program files/microchip/xc32/v2.41/bin/bin/../../lib/gcc/pic32c/6.2.1/../../../../pic32c/lib\libc_nano.a(lib_a-mlock.o)
 .comment       0x0000003c       0x3d c:/program files/microchip/xc32/v2.41/bin/bin/../../lib/gcc/pic32c/6.2.1/../../../../pic32c/lib\libc_nano.a(lib_a-nano-svfprintf.o)
 .comment       0x0000003c       0x3d c:/program files/microchip/xc32/v2.41/bin/bin/../../lib/gcc/pic32c/6.2.1/../../../../pic32c/lib\libc_nano.a(_lib_a-nano-vfprintf.cdeEfFgGnopsuxX.o)
 .comment       0x0000003c       0x3d c:/program files/microchip/xc32/v2.41/bin/bin/../../lib/gcc/pic32c/6.2.1/../../../../pic32c/lib\libc_nano.a(lib_a-nano-vfprintf_i.o)
 .comment       0x0000003c       0x3d c:/program files/microchip/xc32/v2.41/bin/bin/../../lib/gcc/pic32c/6.2.1/../../../../pic32c/lib\libc_nano.a(lib_a-nano-vfprintf.o)
 .comment       0x0000003c       0x3d c:/program files/microchip/xc32/v2.41/bin/bin/../../lib/gcc/pic32c/6.2.1/../../../../pic32c/lib\libc_nano.a(_lib_a-nano-vfscanf.s.o)
 .comment       0x0000003c       0x3d c:/program files/microchip/xc32/v2.41/bin/bin/../../lib/gcc/pic32c/6.2.1/../../../../pic32c/lib\libc_nano.a(lib_a-reent.o)
 .comment       0x0000003c       0x3d c:/program files/microchip/xc32/v2.41/bin/bin/../../lib/gcc/pic32c/6.2.1/../../../../pic32c/lib\libc_nano.a(lib_a-refill.o)
 .comment       0x0000003c       0x3d c:/program files/microchip/xc32/v2.41/bin/bin/../../lib/gcc/pic32c/6.2.1/../../../../pic32c/lib\libc_nano.a(lib_a-sccl.o)
 .comment       0x0000003c       0x3d c:/program files/microchip/xc32/v2.41/bin/bin/../../lib/gcc/pic32c/6.2.1/../../../../pic32c/lib\libc_nano.a(lib_a-__ssfputs.o)
 .comment       0x0000003c       0x3d c:/program files/microchip/xc32/v2.41/bin/bin/../../lib/gcc/pic32c/6.2.1/../../../../pic32c/lib\libc_nano.a(lib_a-__ssputs.o)
 .comment       0x0000003c       0x3d c:/program files/microchip/xc32/v2.41/bin/bin/../../lib/gcc/pic32c/6.2.1/../../../../pic32c/lib\libc_nano.a(lib_a-stdio.o)
 .comment       0x0000003c       0x3d c:/program files/microchip/xc32/v2.41/bin/bin/../../lib/gcc/pic32c/6.2.1/../../../../pic32c/lib\libc_nano.a(lib_a-wbuf.o)
 .comment       0x0000003c       0x3d c:/program files/microchip/xc32/v2.41/bin/bin/../../lib/gcc/pic32c/6.2.1/../../../../pic32c/lib\libc_nano.a(lib_a-writer.o)
 .comment       0x0000003c       0x3d c:/program files/microchip/xc32/v2.41/bin/bin/../../lib/gcc/pic32c/6.2.1/../../../../pic32c/lib\libc_nano.a(lib_a-wsetup.o)
 .comment       0x0000003c       0x3d c:/program files/microchip/xc32/v2.41/bin/bin/../../lib/gcc/pic32c/6.2.1/../../../../pic32c/lib\libc_nano.a(lib_a-closer.o)
 .comment       0x0000003c       0x3d c:/program files/microchip/xc32/v2.41/bin/bin/../../lib/gcc/pic32c/6.2.1/../../../../pic32c/lib\libc_nano.a(lib_a-dtoa.o)
 .comment       0x0000003c       0x3d c:/program files/microchip/xc32/v2.41/bin/bin/../../lib/gcc/pic32c/6.2.1/../../../../pic32c/lib\libc_nano.a(lib_a-fputwc.o)
 .comment       0x0000003c       0x3d c:/program files/microchip/xc32/v2.41/bin/bin/../../lib/gcc/pic32c/6.2.1/../../../../pic32c/lib\libc_nano.a(lib_a-fstatr.o)
 .comment       0x0000003c       0x3d c:/program files/microchip/xc32/v2.41/bin/bin/../../lib/gcc/pic32c/6.2.1/../../../../pic32c/lib\libc_nano.a(lib_a-isattyr.o)
 .comment       0x0000003c       0x3d c:/program files/microchip/xc32/v2.41/bin/bin/../../lib/gcc/pic32c/6.2.1/../../../../pic32c/lib\libc_nano.a(lib_a-localeconv.o)
 .comment       0x0000003c       0x3d c:/program files/microchip/xc32/v2.41/bin/bin/../../lib/gcc/pic32c/6.2.1/../../../../pic32c/lib\libc_nano.a(lib_a-locale.o)
 .comment       0x0000003c       0x3d c:/program files/microchip/xc32/v2.41/bin/bin/../../lib/gcc/pic32c/6.2.1/../../../../pic32c/lib\libc_nano.a(lib_a-lseekr.o)
 .comment       0x0000003c       0x3d c:/program files/microchip/xc32/v2.41/bin/bin/../../lib/gcc/pic32c/6.2.1/../../../../pic32c/lib\libc_nano.a(lib_a-mbtowc_r.o)
 .comment       0x0000003c       0x3d c:/program files/microchip/xc32/v2.41/bin/bin/../../lib/gcc/pic32c/6.2.1/../../../../pic32c/lib\libc_nano.a(lib_a-memchr-stub.o)
 .comment       0x0000003c       0x3d c:/program files/microchip/xc32/v2.41/bin/bin/../../lib/gcc/pic32c/6.2.1/../../../../pic32c/lib\libc_nano.a(lib_a-memmove.o)
 .comment       0x0000003c       0x3d c:/program files/microchip/xc32/v2.41/bin/bin/../../lib/gcc/pic32c/6.2.1/../../../../pic32c/lib\libc_nano.a(lib_a-mprec.o)
 .comment       0x0000003c       0x3d c:/program files/microchip/xc32/v2.41/bin/bin/../../lib/gcc/pic32c/6.2.1/../../../../pic32c/lib\libc_nano.a(lib_a-nano-callocr.o)
 .comment       0x0000003c       0x3d c:/program files/microchip/xc32/v2.41/bin/bin/../../lib/gcc/pic32c/6.2.1/../../../../pic32c/lib\libc_nano.a(lib_a-nano-reallocr.o)
 .comment       0x0000003c       0x3d c:/program files/microchip/xc32/v2.41/bin/bin/../../lib/gcc/pic32c/6.2.1/../../../../pic32c/lib\libc_nano.a(lib_a-readr.o)
 .comment       0x0000003c       0x3d c:/program files/microchip/xc32/v2.41/bin/bin/../../lib/gcc/pic32c/6.2.1/../../../../pic32c/lib\libc_nano.a(lib_a-wcrtomb.o)
 .comment       0x0000003c       0x3d c:/program files/microchip/xc32/v2.41/bin/bin/../../lib/gcc/pic32c/6.2.1/../../../../pic32c/lib\libc_nano.a(lib_a-wctomb_r.o)
 .comment       0x0000003c       0x3d c:/program files/microchip/xc32/v2.41/bin/bin/../../lib/gcc/pic32c/6.2.1/../../../../pic32c/lib\libc_nano.a(lib_a-ctype_.o)
 .comment       0x0000003c       0x3d c:/program files/microchip/xc32/v2.41/bin/bin/../../lib/gcc/pic32c/6.2.1/../../../../pic32c/lib\libc_nano.a(lib_a-nano-msizer.o)
 .comment       0x0000003c       0x3d c:/program files/microchip/xc32/v2.41/bin/bin/../../lib/gcc/pic32c/6.2.1/../../../../pic32c/lib\libpic32c.a(_close.o)
 .comment       0x0000003c       0x3d c:/program files/microchip/xc32/v2.41/bin/bin/../../lib/gcc/pic32c/6.2.1/../../../../pic32c/lib\libpic32c.a(_fstat.o)
 .comment       0x0000003c       0x3d c:/program files/microchip/xc32/v2.41/bin/bin/../../lib/gcc/pic32c/6.2.1/../../../../pic32c/lib\libpic32c.a(_isatty.o)
 .comment       0x0000003c       0x3d c:/program files/microchip/xc32/v2.41/bin/bin/../../lib/gcc/pic32c/6.2.1/../../../../pic32c/lib\libpic32c.a(_lseek.o)
 .comment       0x0000003c       0x3d c:/program files/microchip/xc32/v2.41/bin/bin/../../lib/gcc/pic32c/6.2.1/../../../../pic32c/lib\libpic32c.a(_read.o)
 .comment       0x0000003c       0x3d c:/program files/microchip/xc32/v2.41/bin/bin/../../lib/gcc/pic32c/6.2.1/../../../../pic32c/lib\libpic32c.a(sbrk.o)
 .comment       0x0000003c       0x3d c:/program files/microchip/xc32/v2.41/bin/bin/../../lib/gcc/pic32c/6.2.1/../../../../pic32c/lib\libpic32c.a(_write.o)
 .comment       0x0000003c       0x3d c:/program files/microchip/xc32/v2.41/bin/bin/../../lib/gcc/pic32c/6.2.1/../../../../pic32c/lib\libpic32c.a(close.o)
 .comment       0x0000003c       0x3d c:/program files/microchip/xc32/v2.41/bin/bin/../../lib/gcc/pic32c/6.2.1/../../../../pic32c/lib\libpic32c.a(fstat.o)
 .comment       0x0000003c       0x3d c:/program files/microchip/xc32/v2.41/bin/bin/../../lib/gcc/pic32c/6.2.1/../../../../pic32c/lib\libpic32c.a(isatty.o)
 .comment       0x0000003c       0x3d c:/program files/microchip/xc32/v2.41/bin/bin/../../lib/gcc/pic32c/6.2.1/../../../../pic32c/lib\libpic32c.a(lseek.o)
 .comment       0x0000003c       0x3d c:/program files/microchip/xc32/v2.41/bin/bin/../../lib/gcc/pic32c/6.2.1/../../../../pic32c/lib\libpic32c.a(read.o)
 .comment       0x0000003c       0x3d c:/program files/microchip/xc32/v2.41/bin/bin/../../lib/gcc/pic32c/6.2.1/../../../../pic32c/lib\libpic32c.a(write.o)
 .comment       0x0000003c       0x3d c:/program files/microchip/xc32/v2.41/bin/bin/../../lib/gcc/pic32c/6.2.1\libgcc.a(adddf3.o)
 .comment       0x0000003c       0x3d c:/program files/microchip/xc32/v2.41/bin/bin/../../lib/gcc/pic32c/6.2.1\libgcc.a(divdf3.o)
 .comment       0x0000003c       0x3d c:/program files/microchip/xc32/v2.41/bin/bin/../../lib/gcc/pic32c/6.2.1\libgcc.a(eqdf2.o)
 .comment       0x0000003c       0x3d c:/program files/microchip/xc32/v2.41/bin/bin/../../lib/gcc/pic32c/6.2.1\libgcc.a(gedf2.o)
 .comment       0x0000003c       0x3d c:/program files/microchip/xc32/v2.41/bin/bin/../../lib/gcc/pic32c/6.2.1\libgcc.a(ledf2.o)
 .comment       0x0000003c       0x3d c:/program files/microchip/xc32/v2.41/bin/bin/../../lib/gcc/pic32c/6.2.1\libgcc.a(muldf3.o)
 .comment       0x0000003c       0x3d c:/program files/microchip/xc32/v2.41/bin/bin/../../lib/gcc/pic32c/6.2.1\libgcc.a(subdf3.o)
 .comment       0x0000003c       0x3d c:/program files/microchip/xc32/v2.41/bin/bin/../../lib/gcc/pic32c/6.2.1\libgcc.a(unorddf2.o)
 .comment       0x0000003c       0x3d c:/program files/microchip/xc32/v2.41/bin/bin/../../lib/gcc/pic32c/6.2.1\libgcc.a(fixdfsi.o)
 .comment       0x0000003c       0x3d c:/program files/microchip/xc32/v2.41/bin/bin/../../lib/gcc/pic32c/6.2.1\libgcc.a(floatsidf.o)
 .comment       0x0000003c       0x3d c:/program files/microchip/xc32/v2.41/bin/bin/../../lib/gcc/pic32c/6.2.1\libgcc.a(floatunsidf.o)

.debug_info     0x00000000    0xa0c6c
 .debug_info    0x00000000     0x1324 build/default/production/_ext/1593096446/plib_nvmctrl.o
 .debug_info    0x00001324     0x41f5 build/default/production/_ext/308758920/usb_host_msd.o
 .debug_info    0x00005519     0x463e build/default/production/_ext/308758920/usb_host_scsi.o
 .debug_info    0x00009b57      0x32f build/default/production/_ext/1986646378/plib_evsys.o
 .debug_info    0x00009e86     0x3188 build/default/production/_ext/1360937237/main.o
 .debug_info    0x0000d00e     0x50a7 build/default/production/_ext/1171490990/initialization.o
 .debug_info    0x000120b5     0x38d9 build/default/production/_ext/1171490990/interrupts.o
 .debug_info    0x0001598e     0x3194 build/default/production/_ext/1171490990/exceptions.o
 .debug_info    0x00018b22     0x321b build/default/production/_ext/163028504/xc32_monitor.o
 .debug_info    0x0001bd3d      0x7e2 build/default/production/_ext/1865521619/plib_port.o
 .debug_info    0x0001c51f      0xa4b build/default/production/_ext/1984496892/plib_clock.o
 .debug_info    0x0001cf6a      0x855 build/default/production/_ext/1865468468/plib_nvic.o
 .debug_info    0x0001d7bf     0x3300 build/default/production/_ext/1171490990/startup_xc32.o
 .debug_info    0x00020abf     0x1444 build/default/production/_ext/504274921/plib_sercom5_usart.o
 .debug_info    0x00021f03      0xc3d build/default/production/_ext/829342655/plib_tc3.o
 .debug_info    0x00022b40     0x3258 build/default/production/_ext/101884895/sys_time.o
 .debug_info    0x00025d98     0x34f3 build/default/production/_ext/1171490990/usb_host_init_data.o
 .debug_info    0x0002928b     0x85e7 build/default/production/_ext/308758920/usb_host.o
 .debug_info    0x00031872     0x4e57 build/default/production/_ext/1269487135/sys_fs.o
 .debug_info    0x000366c9     0x3032 build/default/production/_ext/1269487135/sys_fs_media_manager.o
 .debug_info    0x000396fb     0x2128 build/default/production/_ext/1269487135/sys_fs_fat_interface.o
 .debug_info    0x0003b823     0x5cd6 build/default/production/_ext/411819097/ff.o
 .debug_info    0x000414f9      0x5b4 build/default/production/_ext/411819097/ffunicode.o
 .debug_info    0x00041aad     0x1974 build/default/production/_ext/565198302/diskio.o
 .debug_info    0x00043421     0x5e39 build/default/production/_ext/818654064/drv_usbfsv1.o
 .debug_info    0x0004925a     0x747f build/default/production/_ext/818654064/drv_usbfsv1_host.o
 .debug_info    0x000506d9      0x9c9 build/default/production/_ext/1881668453/sys_int.o
 .debug_info    0x000510a2     0x4172 build/default/production/_ext/1360937237/app.o
 .debug_info    0x00055214     0x31be build/default/production/_ext/1171490990/tasks.o
 .debug_info    0x000583d2      0x1f0 c:/program files/microchip/xc32/v2.41/bin/bin/../../lib/gcc/pic32c/6.2.1/../../../../pic32c/lib\libpic32c.a(data_init.o)
 .debug_info    0x000585c2       0xee c:/program files/microchip/xc32/v2.41/bin/bin/../../lib/gcc/pic32c/6.2.1\libgcc.a(_udivsi3.o)
 .debug_info    0x000586b0       0xee c:/program files/microchip/xc32/v2.41/bin/bin/../../lib/gcc/pic32c/6.2.1\libgcc.a(_divsi3.o)
 .debug_info    0x0005879e       0xee c:/program files/microchip/xc32/v2.41/bin/bin/../../lib/gcc/pic32c/6.2.1\libgcc.a(_dvmd_tls.o)
 .debug_info    0x0005888c       0xee c:/program files/microchip/xc32/v2.41/bin/bin/../../lib/gcc/pic32c/6.2.1\libgcc.a(_aeabi_uldivmod.o)
 .debug_info    0x0005897a     0x13d1 c:/program files/microchip/xc32/v2.41/bin/bin/../../lib/gcc/pic32c/6.2.1\libgcc.a(_muldi3.o)
 .debug_info    0x00059d4b     0x132c c:/program files/microchip/xc32/v2.41/bin/bin/../../lib/gcc/pic32c/6.2.1\libgcc.a(_udivmoddi4.o)
 .debug_info    0x0005b077       0xee c:/program files/microchip/xc32/v2.41/bin/bin/../../lib/gcc/pic32c/6.2.1\libgcc.a(_lshrdi3.o)
 .debug_info    0x0005b165       0xee c:/program files/microchip/xc32/v2.41/bin/bin/../../lib/gcc/pic32c/6.2.1\libgcc.a(_ashldi3.o)
 .debug_info    0x0005b253       0xee c:/program files/microchip/xc32/v2.41/bin/bin/../../lib/gcc/pic32c/6.2.1\libgcc.a(_clzdi2.o)
 .debug_info    0x0005b341       0xee c:/program files/microchip/xc32/v2.41/bin/bin/../../lib/gcc/pic32c/6.2.1\libgcc.a(_clzsi2.o)
 .debug_info    0x0005b42f      0xd3c c:/program files/microchip/xc32/v2.41/bin/bin/../../lib/gcc/pic32c/6.2.1/../../../../pic32c/lib\libc_nano.a(lib_a-impure.o)
 .debug_info    0x0005c16b      0x359 c:/program files/microchip/xc32/v2.41/bin/bin/../../lib/gcc/pic32c/6.2.1/../../../../pic32c/lib\libc_nano.a(lib_a-init.o)
 .debug_info    0x0005c4c4      0xddf c:/program files/microchip/xc32/v2.41/bin/bin/../../lib/gcc/pic32c/6.2.1/../../../../pic32c/lib\libc_nano.a(lib_a-malloc.o)
 .debug_info    0x0005d2a3      0xdb3 c:/program files/microchip/xc32/v2.41/bin/bin/../../lib/gcc/pic32c/6.2.1/../../../../pic32c/lib\libc_nano.a(lib_a-memcpy-stub.o)
 .debug_info    0x0005e056     0x14e8 c:/program files/microchip/xc32/v2.41/bin/bin/../../lib/gcc/pic32c/6.2.1/../../../../pic32c/lib\libc_nano.a(lib_a-memset.o)
 .debug_info    0x0005f53e     0x10ed c:/program files/microchip/xc32/v2.41/bin/bin/../../lib/gcc/pic32c/6.2.1/../../../../pic32c/lib\libc_nano.a(lib_a-nano-freer.o)
 .debug_info    0x0006062b     0x119a c:/program files/microchip/xc32/v2.41/bin/bin/../../lib/gcc/pic32c/6.2.1/../../../../pic32c/lib\libc_nano.a(lib_a-nano-mallocr.o)
 .debug_info    0x000617c5     0x1186 c:/program files/microchip/xc32/v2.41/bin/bin/../../lib/gcc/pic32c/6.2.1/../../../../pic32c/lib\libc_nano.a(lib_a-printf.o)
 .debug_info    0x0006294b      0xe2c c:/program files/microchip/xc32/v2.41/bin/bin/../../lib/gcc/pic32c/6.2.1/../../../../pic32c/lib\libc_nano.a(lib_a-sbrkr.o)
 .debug_info    0x00063777      0xde6 c:/program files/microchip/xc32/v2.41/bin/bin/../../lib/gcc/pic32c/6.2.1/../../../../pic32c/lib\libc_nano.a(_lib_a-scanf.s.o)
 .debug_info    0x0006455d     0x108f c:/program files/microchip/xc32/v2.41/bin/bin/../../lib/gcc/pic32c/6.2.1/../../../../pic32c/lib\libc_nano.a(lib_a-setbuf.o)
 .debug_info    0x000655ec     0x1201 c:/program files/microchip/xc32/v2.41/bin/bin/../../lib/gcc/pic32c/6.2.1/../../../../pic32c/lib\libc_nano.a(lib_a-setvbuf.o)
 .debug_info    0x000667ed     0x1195 c:/program files/microchip/xc32/v2.41/bin/bin/../../lib/gcc/pic32c/6.2.1/../../../../pic32c/lib\libc_nano.a(lib_a-sprintf.o)
 .debug_info    0x00067982      0x114 c:/program files/microchip/xc32/v2.41/bin/bin/../../lib/gcc/pic32c/6.2.1/../../../../pic32c/lib\libc_nano.a(lib_a-strcmp.o)
 .debug_info    0x00067a96      0x117 c:/program files/microchip/xc32/v2.41/bin/bin/../../lib/gcc/pic32c/6.2.1/../../../../pic32c/lib\libc_nano.a(lib_a-strlen.o)
 .debug_info    0x00067bad      0xd71 c:/program files/microchip/xc32/v2.41/bin/bin/../../lib/gcc/pic32c/6.2.1/../../../../pic32c/lib\libc_nano.a(lib_a-strncmp.o)
 .debug_info    0x0006891e      0xd99 c:/program files/microchip/xc32/v2.41/bin/bin/../../lib/gcc/pic32c/6.2.1/../../../../pic32c/lib\libc_nano.a(lib_a-strncpy.o)
 .debug_info    0x000696b7     0x1298 c:/program files/microchip/xc32/v2.41/bin/bin/../../lib/gcc/pic32c/6.2.1/../../../../pic32c/lib\libc_nano.a(lib_a-fflush.o)
 .debug_info    0x0006a94f     0x1470 c:/program files/microchip/xc32/v2.41/bin/bin/../../lib/gcc/pic32c/6.2.1/../../../../pic32c/lib\libc_nano.a(lib_a-findfp.o)
 .debug_info    0x0006bdbf     0x11a9 c:/program files/microchip/xc32/v2.41/bin/bin/../../lib/gcc/pic32c/6.2.1/../../../../pic32c/lib\libc_nano.a(lib_a-fwalk.o)
 .debug_info    0x0006cf68     0x14e5 c:/program files/microchip/xc32/v2.41/bin/bin/../../lib/gcc/pic32c/6.2.1/../../../../pic32c/lib\libc_nano.a(lib_a-makebuf.o)
 .debug_info    0x0006e44d      0xd79 c:/program files/microchip/xc32/v2.41/bin/bin/../../lib/gcc/pic32c/6.2.1/../../../../pic32c/lib\libc_nano.a(lib_a-mlock.o)
 .debug_info    0x0006f1c6     0x1bdd c:/program files/microchip/xc32/v2.41/bin/bin/../../lib/gcc/pic32c/6.2.1/../../../../pic32c/lib\libc_nano.a(lib_a-nano-svfprintf.o)
 .debug_info    0x00070da3     0x26b3 c:/program files/microchip/xc32/v2.41/bin/bin/../../lib/gcc/pic32c/6.2.1/../../../../pic32c/lib\libc_nano.a(_lib_a-nano-vfprintf.cdeEfFgGnopsuxX.o)
 .debug_info    0x00073456     0x1d15 c:/program files/microchip/xc32/v2.41/bin/bin/../../lib/gcc/pic32c/6.2.1/../../../../pic32c/lib\libc_nano.a(lib_a-nano-vfprintf_i.o)
 .debug_info    0x0007516b     0x1c9b c:/program files/microchip/xc32/v2.41/bin/bin/../../lib/gcc/pic32c/6.2.1/../../../../pic32c/lib\libc_nano.a(lib_a-nano-vfprintf.o)
 .debug_info    0x00076e06     0x1de7 c:/program files/microchip/xc32/v2.41/bin/bin/../../lib/gcc/pic32c/6.2.1/../../../../pic32c/lib\libc_nano.a(_lib_a-nano-vfscanf.s.o)
 .debug_info    0x00078bed      0xf2f c:/program files/microchip/xc32/v2.41/bin/bin/../../lib/gcc/pic32c/6.2.1/../../../../pic32c/lib\libc_nano.a(lib_a-reent.o)
 .debug_info    0x00079b1c     0x122e c:/program files/microchip/xc32/v2.41/bin/bin/../../lib/gcc/pic32c/6.2.1/../../../../pic32c/lib\libc_nano.a(lib_a-refill.o)
 .debug_info    0x0007ad4a     0x108c c:/program files/microchip/xc32/v2.41/bin/bin/../../lib/gcc/pic32c/6.2.1/../../../../pic32c/lib\libc_nano.a(lib_a-sccl.o)
 .debug_info    0x0007bdd6     0x188d c:/program files/microchip/xc32/v2.41/bin/bin/../../lib/gcc/pic32c/6.2.1/../../../../pic32c/lib\libc_nano.a(lib_a-__ssfputs.o)
 .debug_info    0x0007d663     0x19b8 c:/program files/microchip/xc32/v2.41/bin/bin/../../lib/gcc/pic32c/6.2.1/../../../../pic32c/lib\libc_nano.a(lib_a-__ssputs.o)
 .debug_info    0x0007f01b     0x135a c:/program files/microchip/xc32/v2.41/bin/bin/../../lib/gcc/pic32c/6.2.1/../../../../pic32c/lib\libc_nano.a(lib_a-stdio.o)
 .debug_info    0x00080375     0x11b3 c:/program files/microchip/xc32/v2.41/bin/bin/../../lib/gcc/pic32c/6.2.1/../../../../pic32c/lib\libc_nano.a(lib_a-wbuf.o)
 .debug_info    0x00081528      0xe4b c:/program files/microchip/xc32/v2.41/bin/bin/../../lib/gcc/pic32c/6.2.1/../../../../pic32c/lib\libc_nano.a(lib_a-writer.o)
 .debug_info    0x00082373     0x112e c:/program files/microchip/xc32/v2.41/bin/bin/../../lib/gcc/pic32c/6.2.1/../../../../pic32c/lib\libc_nano.a(lib_a-wsetup.o)
 .debug_info    0x000834a1      0xdfa c:/program files/microchip/xc32/v2.41/bin/bin/../../lib/gcc/pic32c/6.2.1/../../../../pic32c/lib\libc_nano.a(lib_a-closer.o)
 .debug_info    0x0008429b     0x2099 c:/program files/microchip/xc32/v2.41/bin/bin/../../lib/gcc/pic32c/6.2.1/../../../../pic32c/lib\libc_nano.a(lib_a-dtoa.o)
 .debug_info    0x00086334     0x12ea c:/program files/microchip/xc32/v2.41/bin/bin/../../lib/gcc/pic32c/6.2.1/../../../../pic32c/lib\libc_nano.a(lib_a-fputwc.o)
 .debug_info    0x0008761e     0x10f5 c:/program files/microchip/xc32/v2.41/bin/bin/../../lib/gcc/pic32c/6.2.1/../../../../pic32c/lib\libc_nano.a(lib_a-fstatr.o)
 .debug_info    0x00088713      0xe07 c:/program files/microchip/xc32/v2.41/bin/bin/../../lib/gcc/pic32c/6.2.1/../../../../pic32c/lib\libc_nano.a(lib_a-isattyr.o)
 .debug_info    0x0008951a     0x1635 c:/program files/microchip/xc32/v2.41/bin/bin/../../lib/gcc/pic32c/6.2.1/../../../../pic32c/lib\libc_nano.a(lib_a-localeconv.o)
 .debug_info    0x0008ab4f     0x17cf c:/program files/microchip/xc32/v2.41/bin/bin/../../lib/gcc/pic32c/6.2.1/../../../../pic32c/lib\libc_nano.a(lib_a-locale.o)
 .debug_info    0x0008c31e      0xe32 c:/program files/microchip/xc32/v2.41/bin/bin/../../lib/gcc/pic32c/6.2.1/../../../../pic32c/lib\libc_nano.a(lib_a-lseekr.o)
 .debug_info    0x0008d150     0x16a8 c:/program files/microchip/xc32/v2.41/bin/bin/../../lib/gcc/pic32c/6.2.1/../../../../pic32c/lib\libc_nano.a(lib_a-mbtowc_r.o)
 .debug_info    0x0008e7f8      0xdb2 c:/program files/microchip/xc32/v2.41/bin/bin/../../lib/gcc/pic32c/6.2.1/../../../../pic32c/lib\libc_nano.a(lib_a-memchr-stub.o)
 .debug_info    0x0008f5aa     0x1516 c:/program files/microchip/xc32/v2.41/bin/bin/../../lib/gcc/pic32c/6.2.1/../../../../pic32c/lib\libc_nano.a(lib_a-memmove.o)
 .debug_info    0x00090ac0     0x24be c:/program files/microchip/xc32/v2.41/bin/bin/../../lib/gcc/pic32c/6.2.1/../../../../pic32c/lib\libc_nano.a(lib_a-mprec.o)
 .debug_info    0x00092f7e     0x101b c:/program files/microchip/xc32/v2.41/bin/bin/../../lib/gcc/pic32c/6.2.1/../../../../pic32c/lib\libc_nano.a(lib_a-nano-callocr.o)
 .debug_info    0x00093f99     0x109b c:/program files/microchip/xc32/v2.41/bin/bin/../../lib/gcc/pic32c/6.2.1/../../../../pic32c/lib\libc_nano.a(lib_a-nano-reallocr.o)
 .debug_info    0x00095034      0xe49 c:/program files/microchip/xc32/v2.41/bin/bin/../../lib/gcc/pic32c/6.2.1/../../../../pic32c/lib\libc_nano.a(lib_a-readr.o)
 .debug_info    0x00095e7d     0x16a4 c:/program files/microchip/xc32/v2.41/bin/bin/../../lib/gcc/pic32c/6.2.1/../../../../pic32c/lib\libc_nano.a(lib_a-wcrtomb.o)
 .debug_info    0x00097521     0x166c c:/program files/microchip/xc32/v2.41/bin/bin/../../lib/gcc/pic32c/6.2.1/../../../../pic32c/lib\libc_nano.a(lib_a-wctomb_r.o)
 .debug_info    0x00098b8d     0x14b9 c:/program files/microchip/xc32/v2.41/bin/bin/../../lib/gcc/pic32c/6.2.1/../../../../pic32c/lib\libc_nano.a(lib_a-ctype_.o)
 .debug_info    0x0009a046      0xfd4 c:/program files/microchip/xc32/v2.41/bin/bin/../../lib/gcc/pic32c/6.2.1/../../../../pic32c/lib\libc_nano.a(lib_a-nano-msizer.o)
 .debug_info    0x0009b01a      0x1d7 c:/program files/microchip/xc32/v2.41/bin/bin/../../lib/gcc/pic32c/6.2.1/../../../../pic32c/lib\libpic32c.a(_close.o)
 .debug_info    0x0009b1f1      0x1d7 c:/program files/microchip/xc32/v2.41/bin/bin/../../lib/gcc/pic32c/6.2.1/../../../../pic32c/lib\libpic32c.a(_fstat.o)
 .debug_info    0x0009b3c8      0x1d9 c:/program files/microchip/xc32/v2.41/bin/bin/../../lib/gcc/pic32c/6.2.1/../../../../pic32c/lib\libpic32c.a(_isatty.o)
 .debug_info    0x0009b5a1      0x1d7 c:/program files/microchip/xc32/v2.41/bin/bin/../../lib/gcc/pic32c/6.2.1/../../../../pic32c/lib\libpic32c.a(_lseek.o)
 .debug_info    0x0009b778      0x1d5 c:/program files/microchip/xc32/v2.41/bin/bin/../../lib/gcc/pic32c/6.2.1/../../../../pic32c/lib\libpic32c.a(_read.o)
 .debug_info    0x0009b94d      0x1d3 c:/program files/microchip/xc32/v2.41/bin/bin/../../lib/gcc/pic32c/6.2.1/../../../../pic32c/lib\libpic32c.a(sbrk.o)
 .debug_info    0x0009bb20      0x1d7 c:/program files/microchip/xc32/v2.41/bin/bin/../../lib/gcc/pic32c/6.2.1/../../../../pic32c/lib\libpic32c.a(_write.o)
 .debug_info    0x0009bcf7      0x1d4 c:/program files/microchip/xc32/v2.41/bin/bin/../../lib/gcc/pic32c/6.2.1/../../../../pic32c/lib\libpic32c.a(close.o)
 .debug_info    0x0009becb      0x1d4 c:/program files/microchip/xc32/v2.41/bin/bin/../../lib/gcc/pic32c/6.2.1/../../../../pic32c/lib\libpic32c.a(fstat.o)
 .debug_info    0x0009c09f      0x1d6 c:/program files/microchip/xc32/v2.41/bin/bin/../../lib/gcc/pic32c/6.2.1/../../../../pic32c/lib\libpic32c.a(isatty.o)
 .debug_info    0x0009c275      0x1d4 c:/program files/microchip/xc32/v2.41/bin/bin/../../lib/gcc/pic32c/6.2.1/../../../../pic32c/lib\libpic32c.a(lseek.o)
 .debug_info    0x0009c449      0x1d3 c:/program files/microchip/xc32/v2.41/bin/bin/../../lib/gcc/pic32c/6.2.1/../../../../pic32c/lib\libpic32c.a(read.o)
 .debug_info    0x0009c61c      0x1d5 c:/program files/microchip/xc32/v2.41/bin/bin/../../lib/gcc/pic32c/6.2.1/../../../../pic32c/lib\libpic32c.a(write.o)
 .debug_info    0x0009c7f1       0xee c:/program files/microchip/xc32/v2.41/bin/bin/../../lib/gcc/pic32c/6.2.1\libgcc.a(_thumb1_case_uqi.o)
 .debug_info    0x0009c8df       0xee c:/program files/microchip/xc32/v2.41/bin/bin/../../lib/gcc/pic32c/6.2.1\libgcc.a(_arm_cmpdf2.o)
 .debug_info    0x0009c9cd      0x7b0 c:/program files/microchip/xc32/v2.41/bin/bin/../../lib/gcc/pic32c/6.2.1\libgcc.a(adddf3.o)
 .debug_info    0x0009d17d      0x9c6 c:/program files/microchip/xc32/v2.41/bin/bin/../../lib/gcc/pic32c/6.2.1\libgcc.a(divdf3.o)
 .debug_info    0x0009db43      0x413 c:/program files/microchip/xc32/v2.41/bin/bin/../../lib/gcc/pic32c/6.2.1\libgcc.a(eqdf2.o)
 .debug_info    0x0009df56      0x43f c:/program files/microchip/xc32/v2.41/bin/bin/../../lib/gcc/pic32c/6.2.1\libgcc.a(gedf2.o)
 .debug_info    0x0009e395      0x437 c:/program files/microchip/xc32/v2.41/bin/bin/../../lib/gcc/pic32c/6.2.1\libgcc.a(ledf2.o)
 .debug_info    0x0009e7cc      0xa41 c:/program files/microchip/xc32/v2.41/bin/bin/../../lib/gcc/pic32c/6.2.1\libgcc.a(muldf3.o)
 .debug_info    0x0009f20d      0x7b0 c:/program files/microchip/xc32/v2.41/bin/bin/../../lib/gcc/pic32c/6.2.1\libgcc.a(subdf3.o)
 .debug_info    0x0009f9bd      0x415 c:/program files/microchip/xc32/v2.41/bin/bin/../../lib/gcc/pic32c/6.2.1\libgcc.a(unorddf2.o)
 .debug_info    0x0009fdd2      0x3bc c:/program files/microchip/xc32/v2.41/bin/bin/../../lib/gcc/pic32c/6.2.1\libgcc.a(fixdfsi.o)
 .debug_info    0x000a018e      0x4fc c:/program files/microchip/xc32/v2.41/bin/bin/../../lib/gcc/pic32c/6.2.1\libgcc.a(floatsidf.o)
 .debug_info    0x000a068a      0x4f4 c:/program files/microchip/xc32/v2.41/bin/bin/../../lib/gcc/pic32c/6.2.1\libgcc.a(floatunsidf.o)
 .debug_info    0x000a0b7e       0xee c:/program files/microchip/xc32/v2.41/bin/bin/../../lib/gcc/pic32c/6.2.1\libgcc.a(_thumb1_case_uhi.o)

.debug_abbrev   0x00000000     0xca28
 .debug_abbrev  0x00000000      0x26a build/default/production/_ext/1593096446/plib_nvmctrl.o
 .debug_abbrev  0x0000026a      0x4db build/default/production/_ext/308758920/usb_host_msd.o
 .debug_abbrev  0x00000745      0x394 build/default/production/_ext/308758920/usb_host_scsi.o
 .debug_abbrev  0x00000ad9       0x39 build/default/production/_ext/1986646378/plib_evsys.o
 .debug_abbrev  0x00000b12      0x23c build/default/production/_ext/1360937237/main.o
 .debug_abbrev  0x00000d4e      0x307 build/default/production/_ext/1171490990/initialization.o
 .debug_abbrev  0x00001055      0x216 build/default/production/_ext/1171490990/interrupts.o
 .debug_abbrev  0x0000126b      0x205 build/default/production/_ext/1171490990/exceptions.o
 .debug_abbrev  0x00001470      0x27d build/default/production/_ext/163028504/xc32_monitor.o
 .debug_abbrev  0x000016ed      0x14f build/default/production/_ext/1865521619/plib_port.o
 .debug_abbrev  0x0000183c      0x119 build/default/production/_ext/1984496892/plib_clock.o
 .debug_abbrev  0x00001955      0x144 build/default/production/_ext/1865468468/plib_nvic.o
 .debug_abbrev  0x00001a99      0x24a build/default/production/_ext/1171490990/startup_xc32.o
 .debug_abbrev  0x00001ce3      0x29e build/default/production/_ext/504274921/plib_sercom5_usart.o
 .debug_abbrev  0x00001f81      0x1b8 build/default/production/_ext/829342655/plib_tc3.o
 .debug_abbrev  0x00002139      0x5bb build/default/production/_ext/101884895/sys_time.o
 .debug_abbrev  0x000026f4      0x202 build/default/production/_ext/1171490990/usb_host_init_data.o
 .debug_abbrev  0x000028f6      0x5b5 build/default/production/_ext/308758920/usb_host.o
 .debug_abbrev  0x00002eab      0x4a6 build/default/production/_ext/1269487135/sys_fs.o
 .debug_abbrev  0x00003351      0x506 build/default/production/_ext/1269487135/sys_fs_media_manager.o
 .debug_abbrev  0x00003857      0x26b build/default/production/_ext/1269487135/sys_fs_fat_interface.o
 .debug_abbrev  0x00003ac2      0x35c build/default/production/_ext/411819097/ff.o
 .debug_abbrev  0x00003e1e      0x110 build/default/production/_ext/411819097/ffunicode.o
 .debug_abbrev  0x00003f2e      0x314 build/default/production/_ext/565198302/diskio.o
 .debug_abbrev  0x00004242      0x448 build/default/production/_ext/818654064/drv_usbfsv1.o
 .debug_abbrev  0x0000468a      0x4ca build/default/production/_ext/818654064/drv_usbfsv1_host.o
 .debug_abbrev  0x00004b54      0x1df build/default/production/_ext/1881668453/sys_int.o
 .debug_abbrev  0x00004d33      0x30e build/default/production/_ext/1360937237/app.o
 .debug_abbrev  0x00005041      0x233 build/default/production/_ext/1171490990/tasks.o
 .debug_abbrev  0x00005274       0x2a c:/program files/microchip/xc32/v2.41/bin/bin/../../lib/gcc/pic32c/6.2.1/../../../../pic32c/lib\libpic32c.a(data_init.o)
 .debug_abbrev  0x0000529e       0x14 c:/program files/microchip/xc32/v2.41/bin/bin/../../lib/gcc/pic32c/6.2.1\libgcc.a(_udivsi3.o)
 .debug_abbrev  0x000052b2       0x14 c:/program files/microchip/xc32/v2.41/bin/bin/../../lib/gcc/pic32c/6.2.1\libgcc.a(_divsi3.o)
 .debug_abbrev  0x000052c6       0x14 c:/program files/microchip/xc32/v2.41/bin/bin/../../lib/gcc/pic32c/6.2.1\libgcc.a(_dvmd_tls.o)
 .debug_abbrev  0x000052da       0x14 c:/program files/microchip/xc32/v2.41/bin/bin/../../lib/gcc/pic32c/6.2.1\libgcc.a(_aeabi_uldivmod.o)
 .debug_abbrev  0x000052ee      0x176 c:/program files/microchip/xc32/v2.41/bin/bin/../../lib/gcc/pic32c/6.2.1\libgcc.a(_muldi3.o)
 .debug_abbrev  0x00005464      0x13b c:/program files/microchip/xc32/v2.41/bin/bin/../../lib/gcc/pic32c/6.2.1\libgcc.a(_udivmoddi4.o)
 .debug_abbrev  0x0000559f       0x14 c:/program files/microchip/xc32/v2.41/bin/bin/../../lib/gcc/pic32c/6.2.1\libgcc.a(_lshrdi3.o)
 .debug_abbrev  0x000055b3       0x14 c:/program files/microchip/xc32/v2.41/bin/bin/../../lib/gcc/pic32c/6.2.1\libgcc.a(_ashldi3.o)
 .debug_abbrev  0x000055c7       0x14 c:/program files/microchip/xc32/v2.41/bin/bin/../../lib/gcc/pic32c/6.2.1\libgcc.a(_clzdi2.o)
 .debug_abbrev  0x000055db       0x14 c:/program files/microchip/xc32/v2.41/bin/bin/../../lib/gcc/pic32c/6.2.1\libgcc.a(_clzsi2.o)
 .debug_abbrev  0x000055ef      0x131 c:/program files/microchip/xc32/v2.41/bin/bin/../../lib/gcc/pic32c/6.2.1/../../../../pic32c/lib\libc_nano.a(lib_a-impure.o)
 .debug_abbrev  0x00005720       0xa3 c:/program files/microchip/xc32/v2.41/bin/bin/../../lib/gcc/pic32c/6.2.1/../../../../pic32c/lib\libc_nano.a(lib_a-init.o)
 .debug_abbrev  0x000057c3      0x1b0 c:/program files/microchip/xc32/v2.41/bin/bin/../../lib/gcc/pic32c/6.2.1/../../../../pic32c/lib\libc_nano.a(lib_a-malloc.o)
 .debug_abbrev  0x00005973      0x17c c:/program files/microchip/xc32/v2.41/bin/bin/../../lib/gcc/pic32c/6.2.1/../../../../pic32c/lib\libc_nano.a(lib_a-memcpy-stub.o)
 .debug_abbrev  0x00005aef      0x170 c:/program files/microchip/xc32/v2.41/bin/bin/../../lib/gcc/pic32c/6.2.1/../../../../pic32c/lib\libc_nano.a(lib_a-memset.o)
 .debug_abbrev  0x00005c5f      0x24f c:/program files/microchip/xc32/v2.41/bin/bin/../../lib/gcc/pic32c/6.2.1/../../../../pic32c/lib\libc_nano.a(lib_a-nano-freer.o)
 .debug_abbrev  0x00005eae      0x286 c:/program files/microchip/xc32/v2.41/bin/bin/../../lib/gcc/pic32c/6.2.1/../../../../pic32c/lib\libc_nano.a(lib_a-nano-mallocr.o)
 .debug_abbrev  0x00006134      0x218 c:/program files/microchip/xc32/v2.41/bin/bin/../../lib/gcc/pic32c/6.2.1/../../../../pic32c/lib\libc_nano.a(lib_a-printf.o)
 .debug_abbrev  0x0000634c      0x1a8 c:/program files/microchip/xc32/v2.41/bin/bin/../../lib/gcc/pic32c/6.2.1/../../../../pic32c/lib\libc_nano.a(lib_a-sbrkr.o)
 .debug_abbrev  0x000064f4      0x196 c:/program files/microchip/xc32/v2.41/bin/bin/../../lib/gcc/pic32c/6.2.1/../../../../pic32c/lib\libc_nano.a(_lib_a-scanf.s.o)
 .debug_abbrev  0x0000668a      0x19c c:/program files/microchip/xc32/v2.41/bin/bin/../../lib/gcc/pic32c/6.2.1/../../../../pic32c/lib\libc_nano.a(lib_a-setbuf.o)
 .debug_abbrev  0x00006826      0x215 c:/program files/microchip/xc32/v2.41/bin/bin/../../lib/gcc/pic32c/6.2.1/../../../../pic32c/lib\libc_nano.a(lib_a-setvbuf.o)
 .debug_abbrev  0x00006a3b      0x1ea c:/program files/microchip/xc32/v2.41/bin/bin/../../lib/gcc/pic32c/6.2.1/../../../../pic32c/lib\libc_nano.a(lib_a-sprintf.o)
 .debug_abbrev  0x00006c25       0x14 c:/program files/microchip/xc32/v2.41/bin/bin/../../lib/gcc/pic32c/6.2.1/../../../../pic32c/lib\libc_nano.a(lib_a-strcmp.o)
 .debug_abbrev  0x00006c39       0x14 c:/program files/microchip/xc32/v2.41/bin/bin/../../lib/gcc/pic32c/6.2.1/../../../../pic32c/lib\libc_nano.a(lib_a-strlen.o)
 .debug_abbrev  0x00006c4d      0x148 c:/program files/microchip/xc32/v2.41/bin/bin/../../lib/gcc/pic32c/6.2.1/../../../../pic32c/lib\libc_nano.a(lib_a-strncmp.o)
 .debug_abbrev  0x00006d95      0x166 c:/program files/microchip/xc32/v2.41/bin/bin/../../lib/gcc/pic32c/6.2.1/../../../../pic32c/lib\libc_nano.a(lib_a-strncpy.o)
 .debug_abbrev  0x00006efb      0x263 c:/program files/microchip/xc32/v2.41/bin/bin/../../lib/gcc/pic32c/6.2.1/../../../../pic32c/lib\libc_nano.a(lib_a-fflush.o)
 .debug_abbrev  0x0000715e      0x295 c:/program files/microchip/xc32/v2.41/bin/bin/../../lib/gcc/pic32c/6.2.1/../../../../pic32c/lib\libc_nano.a(lib_a-findfp.o)
 .debug_abbrev  0x000073f3      0x1b0 c:/program files/microchip/xc32/v2.41/bin/bin/../../lib/gcc/pic32c/6.2.1/../../../../pic32c/lib\libc_nano.a(lib_a-fwalk.o)
 .debug_abbrev  0x000075a3      0x268 c:/program files/microchip/xc32/v2.41/bin/bin/../../lib/gcc/pic32c/6.2.1/../../../../pic32c/lib\libc_nano.a(lib_a-makebuf.o)
 .debug_abbrev  0x0000780b      0x165 c:/program files/microchip/xc32/v2.41/bin/bin/../../lib/gcc/pic32c/6.2.1/../../../../pic32c/lib\libc_nano.a(lib_a-mlock.o)
 .debug_abbrev  0x00007970      0x239 c:/program files/microchip/xc32/v2.41/bin/bin/../../lib/gcc/pic32c/6.2.1/../../../../pic32c/lib\libc_nano.a(lib_a-nano-svfprintf.o)
 .debug_abbrev  0x00007ba9      0x3c3 c:/program files/microchip/xc32/v2.41/bin/bin/../../lib/gcc/pic32c/6.2.1/../../../../pic32c/lib\libc_nano.a(_lib_a-nano-vfprintf.cdeEfFgGnopsuxX.o)
 .debug_abbrev  0x00007f6c      0x25f c:/program files/microchip/xc32/v2.41/bin/bin/../../lib/gcc/pic32c/6.2.1/../../../../pic32c/lib\libc_nano.a(lib_a-nano-vfprintf_i.o)
 .debug_abbrev  0x000081cb      0x24c c:/program files/microchip/xc32/v2.41/bin/bin/../../lib/gcc/pic32c/6.2.1/../../../../pic32c/lib\libc_nano.a(lib_a-nano-vfprintf.o)
 .debug_abbrev  0x00008417      0x2ae c:/program files/microchip/xc32/v2.41/bin/bin/../../lib/gcc/pic32c/6.2.1/../../../../pic32c/lib\libc_nano.a(_lib_a-nano-vfscanf.s.o)
 .debug_abbrev  0x000086c5      0x1ea c:/program files/microchip/xc32/v2.41/bin/bin/../../lib/gcc/pic32c/6.2.1/../../../../pic32c/lib\libc_nano.a(lib_a-reent.o)
 .debug_abbrev  0x000088af      0x231 c:/program files/microchip/xc32/v2.41/bin/bin/../../lib/gcc/pic32c/6.2.1/../../../../pic32c/lib\libc_nano.a(lib_a-refill.o)
 .debug_abbrev  0x00008ae0      0x191 c:/program files/microchip/xc32/v2.41/bin/bin/../../lib/gcc/pic32c/6.2.1/../../../../pic32c/lib\libc_nano.a(lib_a-sccl.o)
 .debug_abbrev  0x00008c71      0x1f6 c:/program files/microchip/xc32/v2.41/bin/bin/../../lib/gcc/pic32c/6.2.1/../../../../pic32c/lib\libc_nano.a(lib_a-__ssfputs.o)
 .debug_abbrev  0x00008e67      0x20a c:/program files/microchip/xc32/v2.41/bin/bin/../../lib/gcc/pic32c/6.2.1/../../../../pic32c/lib\libc_nano.a(lib_a-__ssputs.o)
 .debug_abbrev  0x00009071      0x224 c:/program files/microchip/xc32/v2.41/bin/bin/../../lib/gcc/pic32c/6.2.1/../../../../pic32c/lib\libc_nano.a(lib_a-stdio.o)
 .debug_abbrev  0x00009295      0x208 c:/program files/microchip/xc32/v2.41/bin/bin/../../lib/gcc/pic32c/6.2.1/../../../../pic32c/lib\libc_nano.a(lib_a-wbuf.o)
 .debug_abbrev  0x0000949d      0x198 c:/program files/microchip/xc32/v2.41/bin/bin/../../lib/gcc/pic32c/6.2.1/../../../../pic32c/lib\libc_nano.a(lib_a-writer.o)
 .debug_abbrev  0x00009635      0x1ec c:/program files/microchip/xc32/v2.41/bin/bin/../../lib/gcc/pic32c/6.2.1/../../../../pic32c/lib\libc_nano.a(lib_a-wsetup.o)
 .debug_abbrev  0x00009821      0x193 c:/program files/microchip/xc32/v2.41/bin/bin/../../lib/gcc/pic32c/6.2.1/../../../../pic32c/lib\libc_nano.a(lib_a-closer.o)
 .debug_abbrev  0x000099b4      0x265 c:/program files/microchip/xc32/v2.41/bin/bin/../../lib/gcc/pic32c/6.2.1/../../../../pic32c/lib\libc_nano.a(lib_a-dtoa.o)
 .debug_abbrev  0x00009c19      0x233 c:/program files/microchip/xc32/v2.41/bin/bin/../../lib/gcc/pic32c/6.2.1/../../../../pic32c/lib\libc_nano.a(lib_a-fputwc.o)
 .debug_abbrev  0x00009e4c      0x193 c:/program files/microchip/xc32/v2.41/bin/bin/../../lib/gcc/pic32c/6.2.1/../../../../pic32c/lib\libc_nano.a(lib_a-fstatr.o)
 .debug_abbrev  0x00009fdf      0x193 c:/program files/microchip/xc32/v2.41/bin/bin/../../lib/gcc/pic32c/6.2.1/../../../../pic32c/lib\libc_nano.a(lib_a-isattyr.o)
 .debug_abbrev  0x0000a172      0x1fc c:/program files/microchip/xc32/v2.41/bin/bin/../../lib/gcc/pic32c/6.2.1/../../../../pic32c/lib\libc_nano.a(lib_a-localeconv.o)
 .debug_abbrev  0x0000a36e      0x264 c:/program files/microchip/xc32/v2.41/bin/bin/../../lib/gcc/pic32c/6.2.1/../../../../pic32c/lib\libc_nano.a(lib_a-locale.o)
 .debug_abbrev  0x0000a5d2      0x193 c:/program files/microchip/xc32/v2.41/bin/bin/../../lib/gcc/pic32c/6.2.1/../../../../pic32c/lib\libc_nano.a(lib_a-lseekr.o)
 .debug_abbrev  0x0000a765      0x1cd c:/program files/microchip/xc32/v2.41/bin/bin/../../lib/gcc/pic32c/6.2.1/../../../../pic32c/lib\libc_nano.a(lib_a-mbtowc_r.o)
 .debug_abbrev  0x0000a932      0x16d c:/program files/microchip/xc32/v2.41/bin/bin/../../lib/gcc/pic32c/6.2.1/../../../../pic32c/lib\libc_nano.a(lib_a-memchr-stub.o)
 .debug_abbrev  0x0000aa9f      0x175 c:/program files/microchip/xc32/v2.41/bin/bin/../../lib/gcc/pic32c/6.2.1/../../../../pic32c/lib\libc_nano.a(lib_a-memmove.o)
 .debug_abbrev  0x0000ac14      0x31e c:/program files/microchip/xc32/v2.41/bin/bin/../../lib/gcc/pic32c/6.2.1/../../../../pic32c/lib\libc_nano.a(lib_a-mprec.o)
 .debug_abbrev  0x0000af32      0x1b9 c:/program files/microchip/xc32/v2.41/bin/bin/../../lib/gcc/pic32c/6.2.1/../../../../pic32c/lib\libc_nano.a(lib_a-nano-callocr.o)
 .debug_abbrev  0x0000b0eb      0x1d1 c:/program files/microchip/xc32/v2.41/bin/bin/../../lib/gcc/pic32c/6.2.1/../../../../pic32c/lib\libc_nano.a(lib_a-nano-reallocr.o)
 .debug_abbrev  0x0000b2bc      0x193 c:/program files/microchip/xc32/v2.41/bin/bin/../../lib/gcc/pic32c/6.2.1/../../../../pic32c/lib\libc_nano.a(lib_a-readr.o)
 .debug_abbrev  0x0000b44f      0x1d5 c:/program files/microchip/xc32/v2.41/bin/bin/../../lib/gcc/pic32c/6.2.1/../../../../pic32c/lib\libc_nano.a(lib_a-wcrtomb.o)
 .debug_abbrev  0x0000b624      0x1ce c:/program files/microchip/xc32/v2.41/bin/bin/../../lib/gcc/pic32c/6.2.1/../../../../pic32c/lib\libc_nano.a(lib_a-wctomb_r.o)
 .debug_abbrev  0x0000b7f2      0x131 c:/program files/microchip/xc32/v2.41/bin/bin/../../lib/gcc/pic32c/6.2.1/../../../../pic32c/lib\libc_nano.a(lib_a-ctype_.o)
 .debug_abbrev  0x0000b923      0x17e c:/program files/microchip/xc32/v2.41/bin/bin/../../lib/gcc/pic32c/6.2.1/../../../../pic32c/lib\libc_nano.a(lib_a-nano-msizer.o)
 .debug_abbrev  0x0000baa1       0x2a c:/program files/microchip/xc32/v2.41/bin/bin/../../lib/gcc/pic32c/6.2.1/../../../../pic32c/lib\libpic32c.a(_close.o)
 .debug_abbrev  0x0000bacb       0x2a c:/program files/microchip/xc32/v2.41/bin/bin/../../lib/gcc/pic32c/6.2.1/../../../../pic32c/lib\libpic32c.a(_fstat.o)
 .debug_abbrev  0x0000baf5       0x2a c:/program files/microchip/xc32/v2.41/bin/bin/../../lib/gcc/pic32c/6.2.1/../../../../pic32c/lib\libpic32c.a(_isatty.o)
 .debug_abbrev  0x0000bb1f       0x2a c:/program files/microchip/xc32/v2.41/bin/bin/../../lib/gcc/pic32c/6.2.1/../../../../pic32c/lib\libpic32c.a(_lseek.o)
 .debug_abbrev  0x0000bb49       0x2a c:/program files/microchip/xc32/v2.41/bin/bin/../../lib/gcc/pic32c/6.2.1/../../../../pic32c/lib\libpic32c.a(_read.o)
 .debug_abbrev  0x0000bb73       0x2a c:/program files/microchip/xc32/v2.41/bin/bin/../../lib/gcc/pic32c/6.2.1/../../../../pic32c/lib\libpic32c.a(sbrk.o)
 .debug_abbrev  0x0000bb9d       0x2a c:/program files/microchip/xc32/v2.41/bin/bin/../../lib/gcc/pic32c/6.2.1/../../../../pic32c/lib\libpic32c.a(_write.o)
 .debug_abbrev  0x0000bbc7       0x2a c:/program files/microchip/xc32/v2.41/bin/bin/../../lib/gcc/pic32c/6.2.1/../../../../pic32c/lib\libpic32c.a(close.o)
 .debug_abbrev  0x0000bbf1       0x2a c:/program files/microchip/xc32/v2.41/bin/bin/../../lib/gcc/pic32c/6.2.1/../../../../pic32c/lib\libpic32c.a(fstat.o)
 .debug_abbrev  0x0000bc1b       0x2a c:/program files/microchip/xc32/v2.41/bin/bin/../../lib/gcc/pic32c/6.2.1/../../../../pic32c/lib\libpic32c.a(isatty.o)
 .debug_abbrev  0x0000bc45       0x2a c:/program files/microchip/xc32/v2.41/bin/bin/../../lib/gcc/pic32c/6.2.1/../../../../pic32c/lib\libpic32c.a(lseek.o)
 .debug_abbrev  0x0000bc6f       0x2a c:/program files/microchip/xc32/v2.41/bin/bin/../../lib/gcc/pic32c/6.2.1/../../../../pic32c/lib\libpic32c.a(read.o)
 .debug_abbrev  0x0000bc99       0x2a c:/program files/microchip/xc32/v2.41/bin/bin/../../lib/gcc/pic32c/6.2.1/../../../../pic32c/lib\libpic32c.a(write.o)
 .debug_abbrev  0x0000bcc3       0x14 c:/program files/microchip/xc32/v2.41/bin/bin/../../lib/gcc/pic32c/6.2.1\libgcc.a(_thumb1_case_uqi.o)
 .debug_abbrev  0x0000bcd7       0x14 c:/program files/microchip/xc32/v2.41/bin/bin/../../lib/gcc/pic32c/6.2.1\libgcc.a(_arm_cmpdf2.o)
 .debug_abbrev  0x0000bceb      0x150 c:/program files/microchip/xc32/v2.41/bin/bin/../../lib/gcc/pic32c/6.2.1\libgcc.a(adddf3.o)
 .debug_abbrev  0x0000be3b      0x143 c:/program files/microchip/xc32/v2.41/bin/bin/../../lib/gcc/pic32c/6.2.1\libgcc.a(divdf3.o)
 .debug_abbrev  0x0000bf7e      0x128 c:/program files/microchip/xc32/v2.41/bin/bin/../../lib/gcc/pic32c/6.2.1\libgcc.a(eqdf2.o)
 .debug_abbrev  0x0000c0a6      0x135 c:/program files/microchip/xc32/v2.41/bin/bin/../../lib/gcc/pic32c/6.2.1\libgcc.a(gedf2.o)
 .debug_abbrev  0x0000c1db      0x12a c:/program files/microchip/xc32/v2.41/bin/bin/../../lib/gcc/pic32c/6.2.1\libgcc.a(ledf2.o)
 .debug_abbrev  0x0000c305      0x14a c:/program files/microchip/xc32/v2.41/bin/bin/../../lib/gcc/pic32c/6.2.1\libgcc.a(muldf3.o)
 .debug_abbrev  0x0000c44f      0x150 c:/program files/microchip/xc32/v2.41/bin/bin/../../lib/gcc/pic32c/6.2.1\libgcc.a(subdf3.o)
 .debug_abbrev  0x0000c59f      0x119 c:/program files/microchip/xc32/v2.41/bin/bin/../../lib/gcc/pic32c/6.2.1\libgcc.a(unorddf2.o)
 .debug_abbrev  0x0000c6b8      0x12c c:/program files/microchip/xc32/v2.41/bin/bin/../../lib/gcc/pic32c/6.2.1\libgcc.a(fixdfsi.o)
 .debug_abbrev  0x0000c7e4      0x118 c:/program files/microchip/xc32/v2.41/bin/bin/../../lib/gcc/pic32c/6.2.1\libgcc.a(floatsidf.o)
 .debug_abbrev  0x0000c8fc      0x118 c:/program files/microchip/xc32/v2.41/bin/bin/../../lib/gcc/pic32c/6.2.1\libgcc.a(floatunsidf.o)
 .debug_abbrev  0x0000ca14       0x14 c:/program files/microchip/xc32/v2.41/bin/bin/../../lib/gcc/pic32c/6.2.1\libgcc.a(_thumb1_case_uhi.o)

.debug_loc      0x00000000    0x2fd28
 .debug_loc     0x00000000      0x1aa build/default/production/_ext/1593096446/plib_nvmctrl.o
 .debug_loc     0x000001aa     0x1b11 build/default/production/_ext/308758920/usb_host_msd.o
 .debug_loc     0x00001cbb     0x1843 build/default/production/_ext/308758920/usb_host_scsi.o
 .debug_loc     0x000034fe       0x20 build/default/production/_ext/1360937237/main.o
 .debug_loc     0x0000351e       0x41 build/default/production/_ext/1171490990/initialization.o
 .debug_loc     0x0000355f       0x9f build/default/production/_ext/163028504/xc32_monitor.o
 .debug_loc     0x000035fe       0x84 build/default/production/_ext/1865521619/plib_port.o
 .debug_loc     0x00003682       0x78 build/default/production/_ext/1984496892/plib_clock.o
 .debug_loc     0x000036fa       0x78 build/default/production/_ext/1865468468/plib_nvic.o
 .debug_loc     0x00003772       0x20 build/default/production/_ext/1171490990/startup_xc32.o
 .debug_loc     0x00003792      0x5b8 build/default/production/_ext/504274921/plib_sercom5_usart.o
 .debug_loc     0x00003d4a       0x54 build/default/production/_ext/829342655/plib_tc3.o
 .debug_loc     0x00003d9e     0x204e build/default/production/_ext/101884895/sys_time.o
 .debug_loc     0x00005dec     0x6a03 build/default/production/_ext/308758920/usb_host.o
 .debug_loc     0x0000c7ef     0x489a build/default/production/_ext/1269487135/sys_fs.o
 .debug_loc     0x00011089     0x1541 build/default/production/_ext/1269487135/sys_fs_media_manager.o
 .debug_loc     0x000125ca     0x17ab build/default/production/_ext/1269487135/sys_fs_fat_interface.o
 .debug_loc     0x00013d75     0x7e87 build/default/production/_ext/411819097/ff.o
 .debug_loc     0x0001bbfc      0x40d build/default/production/_ext/411819097/ffunicode.o
 .debug_loc     0x0001c009      0x4b7 build/default/production/_ext/565198302/diskio.o
 .debug_loc     0x0001c4c0      0x7a5 build/default/production/_ext/818654064/drv_usbfsv1.o
 .debug_loc     0x0001cc65     0x38f9 build/default/production/_ext/818654064/drv_usbfsv1_host.o
 .debug_loc     0x0002055e       0xfc build/default/production/_ext/1881668453/sys_int.o
 .debug_loc     0x0002065a      0x3ec build/default/production/_ext/1360937237/app.o
 .debug_loc     0x00020a46       0x20 build/default/production/_ext/1171490990/tasks.o
 .debug_loc     0x00020a66       0x14 c:/program files/microchip/xc32/v2.41/bin/bin/../../lib/gcc/pic32c/6.2.1/../../../../pic32c/lib\libpic32c.a(data_init.o)
 .debug_loc     0x00020a7a      0x164 c:/program files/microchip/xc32/v2.41/bin/bin/../../lib/gcc/pic32c/6.2.1\libgcc.a(_muldi3.o)
 .debug_loc     0x00020bde      0x29d c:/program files/microchip/xc32/v2.41/bin/bin/../../lib/gcc/pic32c/6.2.1\libgcc.a(_udivmoddi4.o)
 .debug_loc     0x00020e7b       0x72 c:/program files/microchip/xc32/v2.41/bin/bin/../../lib/gcc/pic32c/6.2.1/../../../../pic32c/lib\libc_nano.a(lib_a-init.o)
 .debug_loc     0x00020eed       0x98 c:/program files/microchip/xc32/v2.41/bin/bin/../../lib/gcc/pic32c/6.2.1/../../../../pic32c/lib\libc_nano.a(lib_a-malloc.o)
 .debug_loc     0x00020f85       0xde c:/program files/microchip/xc32/v2.41/bin/bin/../../lib/gcc/pic32c/6.2.1/../../../../pic32c/lib\libc_nano.a(lib_a-memcpy-stub.o)
 .debug_loc     0x00021063       0x72 c:/program files/microchip/xc32/v2.41/bin/bin/../../lib/gcc/pic32c/6.2.1/../../../../pic32c/lib\libc_nano.a(lib_a-memset.o)
 .debug_loc     0x000210d5      0x108 c:/program files/microchip/xc32/v2.41/bin/bin/../../lib/gcc/pic32c/6.2.1/../../../../pic32c/lib\libc_nano.a(lib_a-nano-freer.o)
 .debug_loc     0x000211dd      0x242 c:/program files/microchip/xc32/v2.41/bin/bin/../../lib/gcc/pic32c/6.2.1/../../../../pic32c/lib\libc_nano.a(lib_a-nano-mallocr.o)
 .debug_loc     0x0002141f       0x97 c:/program files/microchip/xc32/v2.41/bin/bin/../../lib/gcc/pic32c/6.2.1/../../../../pic32c/lib\libc_nano.a(lib_a-printf.o)
 .debug_loc     0x000214b6       0x6d c:/program files/microchip/xc32/v2.41/bin/bin/../../lib/gcc/pic32c/6.2.1/../../../../pic32c/lib\libc_nano.a(lib_a-sbrkr.o)
 .debug_loc     0x00021523       0x2c c:/program files/microchip/xc32/v2.41/bin/bin/../../lib/gcc/pic32c/6.2.1/../../../../pic32c/lib\libc_nano.a(_lib_a-scanf.s.o)
 .debug_loc     0x0002154f       0x62 c:/program files/microchip/xc32/v2.41/bin/bin/../../lib/gcc/pic32c/6.2.1/../../../../pic32c/lib\libc_nano.a(lib_a-setbuf.o)
 .debug_loc     0x000215b1      0x1ca c:/program files/microchip/xc32/v2.41/bin/bin/../../lib/gcc/pic32c/6.2.1/../../../../pic32c/lib\libc_nano.a(lib_a-setvbuf.o)
 .debug_loc     0x0002177b       0xfa c:/program files/microchip/xc32/v2.41/bin/bin/../../lib/gcc/pic32c/6.2.1/../../../../pic32c/lib\libc_nano.a(lib_a-sprintf.o)
 .debug_loc     0x00021875       0xbf c:/program files/microchip/xc32/v2.41/bin/bin/../../lib/gcc/pic32c/6.2.1/../../../../pic32c/lib\libc_nano.a(lib_a-strncmp.o)
 .debug_loc     0x00021934      0x12f c:/program files/microchip/xc32/v2.41/bin/bin/../../lib/gcc/pic32c/6.2.1/../../../../pic32c/lib\libc_nano.a(lib_a-strncpy.o)
 .debug_loc     0x00021a63      0x30b c:/program files/microchip/xc32/v2.41/bin/bin/../../lib/gcc/pic32c/6.2.1/../../../../pic32c/lib\libc_nano.a(lib_a-fflush.o)
 .debug_loc     0x00021d6e      0x2b8 c:/program files/microchip/xc32/v2.41/bin/bin/../../lib/gcc/pic32c/6.2.1/../../../../pic32c/lib\libc_nano.a(lib_a-findfp.o)
 .debug_loc     0x00022026      0x1d9 c:/program files/microchip/xc32/v2.41/bin/bin/../../lib/gcc/pic32c/6.2.1/../../../../pic32c/lib\libc_nano.a(lib_a-fwalk.o)
 .debug_loc     0x000221ff      0x260 c:/program files/microchip/xc32/v2.41/bin/bin/../../lib/gcc/pic32c/6.2.1/../../../../pic32c/lib\libc_nano.a(lib_a-makebuf.o)
 .debug_loc     0x0002245f      0x28c c:/program files/microchip/xc32/v2.41/bin/bin/../../lib/gcc/pic32c/6.2.1/../../../../pic32c/lib\libc_nano.a(lib_a-nano-svfprintf.o)
 .debug_loc     0x000226eb      0xe69 c:/program files/microchip/xc32/v2.41/bin/bin/../../lib/gcc/pic32c/6.2.1/../../../../pic32c/lib\libc_nano.a(_lib_a-nano-vfprintf.cdeEfFgGnopsuxX.o)
 .debug_loc     0x00023554      0x66f c:/program files/microchip/xc32/v2.41/bin/bin/../../lib/gcc/pic32c/6.2.1/../../../../pic32c/lib\libc_nano.a(lib_a-nano-vfprintf_i.o)
 .debug_loc     0x00023bc3      0x377 c:/program files/microchip/xc32/v2.41/bin/bin/../../lib/gcc/pic32c/6.2.1/../../../../pic32c/lib\libc_nano.a(lib_a-nano-vfprintf.o)
 .debug_loc     0x00023f3a      0xc59 c:/program files/microchip/xc32/v2.41/bin/bin/../../lib/gcc/pic32c/6.2.1/../../../../pic32c/lib\libc_nano.a(_lib_a-nano-vfscanf.s.o)
 .debug_loc     0x00024b93      0x10b c:/program files/microchip/xc32/v2.41/bin/bin/../../lib/gcc/pic32c/6.2.1/../../../../pic32c/lib\libc_nano.a(lib_a-reent.o)
 .debug_loc     0x00024c9e      0x1a1 c:/program files/microchip/xc32/v2.41/bin/bin/../../lib/gcc/pic32c/6.2.1/../../../../pic32c/lib\libc_nano.a(lib_a-refill.o)
 .debug_loc     0x00024e3f      0x1a0 c:/program files/microchip/xc32/v2.41/bin/bin/../../lib/gcc/pic32c/6.2.1/../../../../pic32c/lib\libc_nano.a(lib_a-sccl.o)
 .debug_loc     0x00024fdf      0x1da c:/program files/microchip/xc32/v2.41/bin/bin/../../lib/gcc/pic32c/6.2.1/../../../../pic32c/lib\libc_nano.a(lib_a-__ssfputs.o)
 .debug_loc     0x000251b9      0x1e8 c:/program files/microchip/xc32/v2.41/bin/bin/../../lib/gcc/pic32c/6.2.1/../../../../pic32c/lib\libc_nano.a(lib_a-__ssputs.o)
 .debug_loc     0x000253a1      0x382 c:/program files/microchip/xc32/v2.41/bin/bin/../../lib/gcc/pic32c/6.2.1/../../../../pic32c/lib\libc_nano.a(lib_a-stdio.o)
 .debug_loc     0x00025723      0x194 c:/program files/microchip/xc32/v2.41/bin/bin/../../lib/gcc/pic32c/6.2.1/../../../../pic32c/lib\libc_nano.a(lib_a-wbuf.o)
 .debug_loc     0x000258b7       0xc5 c:/program files/microchip/xc32/v2.41/bin/bin/../../lib/gcc/pic32c/6.2.1/../../../../pic32c/lib\libc_nano.a(lib_a-writer.o)
 .debug_loc     0x0002597c       0x9e c:/program files/microchip/xc32/v2.41/bin/bin/../../lib/gcc/pic32c/6.2.1/../../../../pic32c/lib\libc_nano.a(lib_a-wsetup.o)
 .debug_loc     0x00025a1a       0x6d c:/program files/microchip/xc32/v2.41/bin/bin/../../lib/gcc/pic32c/6.2.1/../../../../pic32c/lib\libc_nano.a(lib_a-closer.o)
 .debug_loc     0x00025a87     0x1c81 c:/program files/microchip/xc32/v2.41/bin/bin/../../lib/gcc/pic32c/6.2.1/../../../../pic32c/lib\libc_nano.a(lib_a-dtoa.o)
 .debug_loc     0x00027708      0x2ac c:/program files/microchip/xc32/v2.41/bin/bin/../../lib/gcc/pic32c/6.2.1/../../../../pic32c/lib\libc_nano.a(lib_a-fputwc.o)
 .debug_loc     0x000279b4       0x99 c:/program files/microchip/xc32/v2.41/bin/bin/../../lib/gcc/pic32c/6.2.1/../../../../pic32c/lib\libc_nano.a(lib_a-fstatr.o)
 .debug_loc     0x00027a4d       0x6d c:/program files/microchip/xc32/v2.41/bin/bin/../../lib/gcc/pic32c/6.2.1/../../../../pic32c/lib\libc_nano.a(lib_a-isattyr.o)
 .debug_loc     0x00027aba       0x63 c:/program files/microchip/xc32/v2.41/bin/bin/../../lib/gcc/pic32c/6.2.1/../../../../pic32c/lib\libc_nano.a(lib_a-localeconv.o)
 .debug_loc     0x00027b1d      0x174 c:/program files/microchip/xc32/v2.41/bin/bin/../../lib/gcc/pic32c/6.2.1/../../../../pic32c/lib\libc_nano.a(lib_a-locale.o)
 .debug_loc     0x00027c91       0xc5 c:/program files/microchip/xc32/v2.41/bin/bin/../../lib/gcc/pic32c/6.2.1/../../../../pic32c/lib\libc_nano.a(lib_a-lseekr.o)
 .debug_loc     0x00027d56      0x19a c:/program files/microchip/xc32/v2.41/bin/bin/../../lib/gcc/pic32c/6.2.1/../../../../pic32c/lib\libc_nano.a(lib_a-mbtowc_r.o)
 .debug_loc     0x00027ef0       0xb4 c:/program files/microchip/xc32/v2.41/bin/bin/../../lib/gcc/pic32c/6.2.1/../../../../pic32c/lib\libc_nano.a(lib_a-memchr-stub.o)
 .debug_loc     0x00027fa4      0x107 c:/program files/microchip/xc32/v2.41/bin/bin/../../lib/gcc/pic32c/6.2.1/../../../../pic32c/lib\libc_nano.a(lib_a-memmove.o)
 .debug_loc     0x000280ab     0x1e16 c:/program files/microchip/xc32/v2.41/bin/bin/../../lib/gcc/pic32c/6.2.1/../../../../pic32c/lib\libc_nano.a(lib_a-mprec.o)
 .debug_loc     0x00029ec1       0xac c:/program files/microchip/xc32/v2.41/bin/bin/../../lib/gcc/pic32c/6.2.1/../../../../pic32c/lib\libc_nano.a(lib_a-nano-callocr.o)
 .debug_loc     0x00029f6d      0x15c c:/program files/microchip/xc32/v2.41/bin/bin/../../lib/gcc/pic32c/6.2.1/../../../../pic32c/lib\libc_nano.a(lib_a-nano-reallocr.o)
 .debug_loc     0x0002a0c9       0xc5 c:/program files/microchip/xc32/v2.41/bin/bin/../../lib/gcc/pic32c/6.2.1/../../../../pic32c/lib\libc_nano.a(lib_a-readr.o)
 .debug_loc     0x0002a18e      0x1cb c:/program files/microchip/xc32/v2.41/bin/bin/../../lib/gcc/pic32c/6.2.1/../../../../pic32c/lib\libc_nano.a(lib_a-wcrtomb.o)
 .debug_loc     0x0002a359       0xf1 c:/program files/microchip/xc32/v2.41/bin/bin/../../lib/gcc/pic32c/6.2.1/../../../../pic32c/lib\libc_nano.a(lib_a-wctomb_r.o)
 .debug_loc     0x0002a44a       0x7d c:/program files/microchip/xc32/v2.41/bin/bin/../../lib/gcc/pic32c/6.2.1/../../../../pic32c/lib\libc_nano.a(lib_a-nano-msizer.o)
 .debug_loc     0x0002a4c7       0x14 c:/program files/microchip/xc32/v2.41/bin/bin/../../lib/gcc/pic32c/6.2.1/../../../../pic32c/lib\libpic32c.a(_close.o)
 .debug_loc     0x0002a4db       0x14 c:/program files/microchip/xc32/v2.41/bin/bin/../../lib/gcc/pic32c/6.2.1/../../../../pic32c/lib\libpic32c.a(_fstat.o)
 .debug_loc     0x0002a4ef       0x14 c:/program files/microchip/xc32/v2.41/bin/bin/../../lib/gcc/pic32c/6.2.1/../../../../pic32c/lib\libpic32c.a(_isatty.o)
 .debug_loc     0x0002a503       0x14 c:/program files/microchip/xc32/v2.41/bin/bin/../../lib/gcc/pic32c/6.2.1/../../../../pic32c/lib\libpic32c.a(_lseek.o)
 .debug_loc     0x0002a517       0x14 c:/program files/microchip/xc32/v2.41/bin/bin/../../lib/gcc/pic32c/6.2.1/../../../../pic32c/lib\libpic32c.a(_read.o)
 .debug_loc     0x0002a52b       0x14 c:/program files/microchip/xc32/v2.41/bin/bin/../../lib/gcc/pic32c/6.2.1/../../../../pic32c/lib\libpic32c.a(_write.o)
 .debug_loc     0x0002a53f       0x14 c:/program files/microchip/xc32/v2.41/bin/bin/../../lib/gcc/pic32c/6.2.1/../../../../pic32c/lib\libpic32c.a(read.o)
 .debug_loc     0x0002a553       0x14 c:/program files/microchip/xc32/v2.41/bin/bin/../../lib/gcc/pic32c/6.2.1/../../../../pic32c/lib\libpic32c.a(write.o)
 .debug_loc     0x0002a567     0x147e c:/program files/microchip/xc32/v2.41/bin/bin/../../lib/gcc/pic32c/6.2.1\libgcc.a(adddf3.o)
 .debug_loc     0x0002b9e5     0x1513 c:/program files/microchip/xc32/v2.41/bin/bin/../../lib/gcc/pic32c/6.2.1\libgcc.a(divdf3.o)
 .debug_loc     0x0002cef8      0x120 c:/program files/microchip/xc32/v2.41/bin/bin/../../lib/gcc/pic32c/6.2.1\libgcc.a(eqdf2.o)
 .debug_loc     0x0002d018      0x26c c:/program files/microchip/xc32/v2.41/bin/bin/../../lib/gcc/pic32c/6.2.1\libgcc.a(gedf2.o)
 .debug_loc     0x0002d284      0x1d5 c:/program files/microchip/xc32/v2.41/bin/bin/../../lib/gcc/pic32c/6.2.1\libgcc.a(ledf2.o)
 .debug_loc     0x0002d459      0xfde c:/program files/microchip/xc32/v2.41/bin/bin/../../lib/gcc/pic32c/6.2.1\libgcc.a(muldf3.o)
 .debug_loc     0x0002e437     0x1362 c:/program files/microchip/xc32/v2.41/bin/bin/../../lib/gcc/pic32c/6.2.1\libgcc.a(subdf3.o)
 .debug_loc     0x0002f799       0xbe c:/program files/microchip/xc32/v2.41/bin/bin/../../lib/gcc/pic32c/6.2.1\libgcc.a(unorddf2.o)
 .debug_loc     0x0002f857      0x131 c:/program files/microchip/xc32/v2.41/bin/bin/../../lib/gcc/pic32c/6.2.1\libgcc.a(fixdfsi.o)
 .debug_loc     0x0002f988      0x1c1 c:/program files/microchip/xc32/v2.41/bin/bin/../../lib/gcc/pic32c/6.2.1\libgcc.a(floatsidf.o)
 .debug_loc     0x0002fb49      0x1df c:/program files/microchip/xc32/v2.41/bin/bin/../../lib/gcc/pic32c/6.2.1\libgcc.a(floatunsidf.o)

.debug_aranges  0x00000000     0x1d10
 .debug_aranges
                0x00000000       0x60 build/default/production/_ext/1593096446/plib_nvmctrl.o
 .debug_aranges
                0x00000060       0x98 build/default/production/_ext/308758920/usb_host_msd.o
 .debug_aranges
                0x000000f8       0xe0 build/default/production/_ext/308758920/usb_host_scsi.o
 .debug_aranges
                0x000001d8       0x20 build/default/production/_ext/1986646378/plib_evsys.o
 .debug_aranges
                0x000001f8       0x20 build/default/production/_ext/1360937237/main.o
 .debug_aranges
                0x00000218       0x20 build/default/production/_ext/1171490990/initialization.o
 .debug_aranges
                0x00000238       0x20 build/default/production/_ext/1171490990/interrupts.o
 .debug_aranges
                0x00000258       0x28 build/default/production/_ext/1171490990/exceptions.o
 .debug_aranges
                0x00000280       0x28 build/default/production/_ext/163028504/xc32_monitor.o
 .debug_aranges
                0x000002a8       0x60 build/default/production/_ext/1865521619/plib_port.o
 .debug_aranges
                0x00000308       0x20 build/default/production/_ext/1984496892/plib_clock.o
 .debug_aranges
                0x00000328       0x20 build/default/production/_ext/1865468468/plib_nvic.o
 .debug_aranges
                0x00000348       0x20 build/default/production/_ext/1171490990/startup_xc32.o
 .debug_aranges
                0x00000368       0x90 build/default/production/_ext/504274921/plib_sercom5_usart.o
 .debug_aranges
                0x000003f8       0x78 build/default/production/_ext/829342655/plib_tc3.o
 .debug_aranges
                0x00000470      0x130 build/default/production/_ext/101884895/sys_time.o
 .debug_aranges
                0x000005a0       0x18 build/default/production/_ext/1171490990/usb_host_init_data.o
 .debug_aranges
                0x000005b8      0x1e0 build/default/production/_ext/308758920/usb_host.o
 .debug_aranges
                0x00000798      0x178 build/default/production/_ext/1269487135/sys_fs.o
 .debug_aranges
                0x00000910       0xa0 build/default/production/_ext/1269487135/sys_fs_media_manager.o
 .debug_aranges
                0x000009b0      0x130 build/default/production/_ext/1269487135/sys_fs_fat_interface.o
 .debug_aranges
                0x00000ae0      0x228 build/default/production/_ext/411819097/ff.o
 .debug_aranges
                0x00000d08       0x30 build/default/production/_ext/411819097/ffunicode.o
 .debug_aranges
                0x00000d38       0x58 build/default/production/_ext/565198302/diskio.o
 .debug_aranges
                0x00000d90       0x80 build/default/production/_ext/818654064/drv_usbfsv1.o
 .debug_aranges
                0x00000e10      0x110 build/default/production/_ext/818654064/drv_usbfsv1_host.o
 .debug_aranges
                0x00000f20       0x40 build/default/production/_ext/1881668453/sys_int.o
 .debug_aranges
                0x00000f60       0x38 build/default/production/_ext/1360937237/app.o
 .debug_aranges
                0x00000f98       0x20 build/default/production/_ext/1171490990/tasks.o
 .debug_aranges
                0x00000fb8       0x20 c:/program files/microchip/xc32/v2.41/bin/bin/../../lib/gcc/pic32c/6.2.1/../../../../pic32c/lib\libpic32c.a(data_init.o)
 .debug_aranges
                0x00000fd8       0x20 c:/program files/microchip/xc32/v2.41/bin/bin/../../lib/gcc/pic32c/6.2.1\libgcc.a(_udivsi3.o)
 .debug_aranges
                0x00000ff8       0x20 c:/program files/microchip/xc32/v2.41/bin/bin/../../lib/gcc/pic32c/6.2.1\libgcc.a(_divsi3.o)
 .debug_aranges
                0x00001018       0x20 c:/program files/microchip/xc32/v2.41/bin/bin/../../lib/gcc/pic32c/6.2.1\libgcc.a(_dvmd_tls.o)
 .debug_aranges
                0x00001038       0x20 c:/program files/microchip/xc32/v2.41/bin/bin/../../lib/gcc/pic32c/6.2.1\libgcc.a(_aeabi_uldivmod.o)
 .debug_aranges
                0x00001058       0x20 c:/program files/microchip/xc32/v2.41/bin/bin/../../lib/gcc/pic32c/6.2.1\libgcc.a(_muldi3.o)
 .debug_aranges
                0x00001078       0x20 c:/program files/microchip/xc32/v2.41/bin/bin/../../lib/gcc/pic32c/6.2.1\libgcc.a(_udivmoddi4.o)
 .debug_aranges
                0x00001098       0x20 c:/program files/microchip/xc32/v2.41/bin/bin/../../lib/gcc/pic32c/6.2.1\libgcc.a(_lshrdi3.o)
 .debug_aranges
                0x000010b8       0x20 c:/program files/microchip/xc32/v2.41/bin/bin/../../lib/gcc/pic32c/6.2.1\libgcc.a(_ashldi3.o)
 .debug_aranges
                0x000010d8       0x20 c:/program files/microchip/xc32/v2.41/bin/bin/../../lib/gcc/pic32c/6.2.1\libgcc.a(_clzdi2.o)
 .debug_aranges
                0x000010f8       0x20 c:/program files/microchip/xc32/v2.41/bin/bin/../../lib/gcc/pic32c/6.2.1\libgcc.a(_clzsi2.o)
 .debug_aranges
                0x00001118       0x18 c:/program files/microchip/xc32/v2.41/bin/bin/../../lib/gcc/pic32c/6.2.1/../../../../pic32c/lib\libc_nano.a(lib_a-impure.o)
 .debug_aranges
                0x00001130       0x20 c:/program files/microchip/xc32/v2.41/bin/bin/../../lib/gcc/pic32c/6.2.1/../../../../pic32c/lib\libc_nano.a(lib_a-init.o)
 .debug_aranges
                0x00001150       0x28 c:/program files/microchip/xc32/v2.41/bin/bin/../../lib/gcc/pic32c/6.2.1/../../../../pic32c/lib\libc_nano.a(lib_a-malloc.o)
 .debug_aranges
                0x00001178       0x20 c:/program files/microchip/xc32/v2.41/bin/bin/../../lib/gcc/pic32c/6.2.1/../../../../pic32c/lib\libc_nano.a(lib_a-memcpy-stub.o)
 .debug_aranges
                0x00001198       0x20 c:/program files/microchip/xc32/v2.41/bin/bin/../../lib/gcc/pic32c/6.2.1/../../../../pic32c/lib\libc_nano.a(lib_a-memset.o)
 .debug_aranges
                0x000011b8       0x20 c:/program files/microchip/xc32/v2.41/bin/bin/../../lib/gcc/pic32c/6.2.1/../../../../pic32c/lib\libc_nano.a(lib_a-nano-freer.o)
 .debug_aranges
                0x000011d8       0x20 c:/program files/microchip/xc32/v2.41/bin/bin/../../lib/gcc/pic32c/6.2.1/../../../../pic32c/lib\libc_nano.a(lib_a-nano-mallocr.o)
 .debug_aranges
                0x000011f8       0x28 c:/program files/microchip/xc32/v2.41/bin/bin/../../lib/gcc/pic32c/6.2.1/../../../../pic32c/lib\libc_nano.a(lib_a-printf.o)
 .debug_aranges
                0x00001220       0x20 c:/program files/microchip/xc32/v2.41/bin/bin/../../lib/gcc/pic32c/6.2.1/../../../../pic32c/lib\libc_nano.a(lib_a-sbrkr.o)
 .debug_aranges
                0x00001240       0x20 c:/program files/microchip/xc32/v2.41/bin/bin/../../lib/gcc/pic32c/6.2.1/../../../../pic32c/lib\libc_nano.a(_lib_a-scanf.s.o)
 .debug_aranges
                0x00001260       0x20 c:/program files/microchip/xc32/v2.41/bin/bin/../../lib/gcc/pic32c/6.2.1/../../../../pic32c/lib\libc_nano.a(lib_a-setbuf.o)
 .debug_aranges
                0x00001280       0x20 c:/program files/microchip/xc32/v2.41/bin/bin/../../lib/gcc/pic32c/6.2.1/../../../../pic32c/lib\libc_nano.a(lib_a-setvbuf.o)
 .debug_aranges
                0x000012a0       0x28 c:/program files/microchip/xc32/v2.41/bin/bin/../../lib/gcc/pic32c/6.2.1/../../../../pic32c/lib\libc_nano.a(lib_a-sprintf.o)
 .debug_aranges
                0x000012c8       0x20 c:/program files/microchip/xc32/v2.41/bin/bin/../../lib/gcc/pic32c/6.2.1/../../../../pic32c/lib\libc_nano.a(lib_a-strcmp.o)
 .debug_aranges
                0x000012e8       0x20 c:/program files/microchip/xc32/v2.41/bin/bin/../../lib/gcc/pic32c/6.2.1/../../../../pic32c/lib\libc_nano.a(lib_a-strlen.o)
 .debug_aranges
                0x00001308       0x20 c:/program files/microchip/xc32/v2.41/bin/bin/../../lib/gcc/pic32c/6.2.1/../../../../pic32c/lib\libc_nano.a(lib_a-strncmp.o)
 .debug_aranges
                0x00001328       0x20 c:/program files/microchip/xc32/v2.41/bin/bin/../../lib/gcc/pic32c/6.2.1/../../../../pic32c/lib\libc_nano.a(lib_a-strncpy.o)
 .debug_aranges
                0x00001348       0x30 c:/program files/microchip/xc32/v2.41/bin/bin/../../lib/gcc/pic32c/6.2.1/../../../../pic32c/lib\libc_nano.a(lib_a-fflush.o)
 .debug_aranges
                0x00001378       0x48 c:/program files/microchip/xc32/v2.41/bin/bin/../../lib/gcc/pic32c/6.2.1/../../../../pic32c/lib\libc_nano.a(lib_a-findfp.o)
 .debug_aranges
                0x000013c0       0x28 c:/program files/microchip/xc32/v2.41/bin/bin/../../lib/gcc/pic32c/6.2.1/../../../../pic32c/lib\libc_nano.a(lib_a-fwalk.o)
 .debug_aranges
                0x000013e8       0x28 c:/program files/microchip/xc32/v2.41/bin/bin/../../lib/gcc/pic32c/6.2.1/../../../../pic32c/lib\libc_nano.a(lib_a-makebuf.o)
 .debug_aranges
                0x00001410       0x20 c:/program files/microchip/xc32/v2.41/bin/bin/../../lib/gcc/pic32c/6.2.1/../../../../pic32c/lib\libc_nano.a(lib_a-mlock.o)
 .debug_aranges
                0x00001430       0x20 c:/program files/microchip/xc32/v2.41/bin/bin/../../lib/gcc/pic32c/6.2.1/../../../../pic32c/lib\libc_nano.a(lib_a-nano-svfprintf.o)
 .debug_aranges
                0x00001450       0x30 c:/program files/microchip/xc32/v2.41/bin/bin/../../lib/gcc/pic32c/6.2.1/../../../../pic32c/lib\libc_nano.a(_lib_a-nano-vfprintf.cdeEfFgGnopsuxX.o)
 .debug_aranges
                0x00001480       0x28 c:/program files/microchip/xc32/v2.41/bin/bin/../../lib/gcc/pic32c/6.2.1/../../../../pic32c/lib\libc_nano.a(lib_a-nano-vfprintf_i.o)
 .debug_aranges
                0x000014a8       0x28 c:/program files/microchip/xc32/v2.41/bin/bin/../../lib/gcc/pic32c/6.2.1/../../../../pic32c/lib\libc_nano.a(lib_a-nano-vfprintf.o)
 .debug_aranges
                0x000014d0       0x38 c:/program files/microchip/xc32/v2.41/bin/bin/../../lib/gcc/pic32c/6.2.1/../../../../pic32c/lib\libc_nano.a(_lib_a-nano-vfscanf.s.o)
 .debug_aranges
                0x00001508       0x28 c:/program files/microchip/xc32/v2.41/bin/bin/../../lib/gcc/pic32c/6.2.1/../../../../pic32c/lib\libc_nano.a(lib_a-reent.o)
 .debug_aranges
                0x00001530       0x28 c:/program files/microchip/xc32/v2.41/bin/bin/../../lib/gcc/pic32c/6.2.1/../../../../pic32c/lib\libc_nano.a(lib_a-refill.o)
 .debug_aranges
                0x00001558       0x20 c:/program files/microchip/xc32/v2.41/bin/bin/../../lib/gcc/pic32c/6.2.1/../../../../pic32c/lib\libc_nano.a(lib_a-sccl.o)
 .debug_aranges
                0x00001578       0x28 c:/program files/microchip/xc32/v2.41/bin/bin/../../lib/gcc/pic32c/6.2.1/../../../../pic32c/lib\libc_nano.a(lib_a-__ssfputs.o)
 .debug_aranges
                0x000015a0       0x20 c:/program files/microchip/xc32/v2.41/bin/bin/../../lib/gcc/pic32c/6.2.1/../../../../pic32c/lib\libc_nano.a(lib_a-__ssputs.o)
 .debug_aranges
                0x000015c0       0x40 c:/program files/microchip/xc32/v2.41/bin/bin/../../lib/gcc/pic32c/6.2.1/../../../../pic32c/lib\libc_nano.a(lib_a-stdio.o)
 .debug_aranges
                0x00001600       0x28 c:/program files/microchip/xc32/v2.41/bin/bin/../../lib/gcc/pic32c/6.2.1/../../../../pic32c/lib\libc_nano.a(lib_a-wbuf.o)
 .debug_aranges
                0x00001628       0x20 c:/program files/microchip/xc32/v2.41/bin/bin/../../lib/gcc/pic32c/6.2.1/../../../../pic32c/lib\libc_nano.a(lib_a-writer.o)
 .debug_aranges
                0x00001648       0x20 c:/program files/microchip/xc32/v2.41/bin/bin/../../lib/gcc/pic32c/6.2.1/../../../../pic32c/lib\libc_nano.a(lib_a-wsetup.o)
 .debug_aranges
                0x00001668       0x20 c:/program files/microchip/xc32/v2.41/bin/bin/../../lib/gcc/pic32c/6.2.1/../../../../pic32c/lib\libc_nano.a(lib_a-closer.o)
 .debug_aranges
                0x00001688       0x28 c:/program files/microchip/xc32/v2.41/bin/bin/../../lib/gcc/pic32c/6.2.1/../../../../pic32c/lib\libc_nano.a(lib_a-dtoa.o)
 .debug_aranges
                0x000016b0       0x30 c:/program files/microchip/xc32/v2.41/bin/bin/../../lib/gcc/pic32c/6.2.1/../../../../pic32c/lib\libc_nano.a(lib_a-fputwc.o)
 .debug_aranges
                0x000016e0       0x20 c:/program files/microchip/xc32/v2.41/bin/bin/../../lib/gcc/pic32c/6.2.1/../../../../pic32c/lib\libc_nano.a(lib_a-fstatr.o)
 .debug_aranges
                0x00001700       0x20 c:/program files/microchip/xc32/v2.41/bin/bin/../../lib/gcc/pic32c/6.2.1/../../../../pic32c/lib\libc_nano.a(lib_a-isattyr.o)
 .debug_aranges
                0x00001720       0x30 c:/program files/microchip/xc32/v2.41/bin/bin/../../lib/gcc/pic32c/6.2.1/../../../../pic32c/lib\libc_nano.a(lib_a-localeconv.o)
 .debug_aranges
                0x00001750       0x40 c:/program files/microchip/xc32/v2.41/bin/bin/../../lib/gcc/pic32c/6.2.1/../../../../pic32c/lib\libc_nano.a(lib_a-locale.o)
 .debug_aranges
                0x00001790       0x20 c:/program files/microchip/xc32/v2.41/bin/bin/../../lib/gcc/pic32c/6.2.1/../../../../pic32c/lib\libc_nano.a(lib_a-lseekr.o)
 .debug_aranges
                0x000017b0       0x28 c:/program files/microchip/xc32/v2.41/bin/bin/../../lib/gcc/pic32c/6.2.1/../../../../pic32c/lib\libc_nano.a(lib_a-mbtowc_r.o)
 .debug_aranges
                0x000017d8       0x20 c:/program files/microchip/xc32/v2.41/bin/bin/../../lib/gcc/pic32c/6.2.1/../../../../pic32c/lib\libc_nano.a(lib_a-memchr-stub.o)
 .debug_aranges
                0x000017f8       0x20 c:/program files/microchip/xc32/v2.41/bin/bin/../../lib/gcc/pic32c/6.2.1/../../../../pic32c/lib\libc_nano.a(lib_a-memmove.o)
 .debug_aranges
                0x00001818       0xb0 c:/program files/microchip/xc32/v2.41/bin/bin/../../lib/gcc/pic32c/6.2.1/../../../../pic32c/lib\libc_nano.a(lib_a-mprec.o)
 .debug_aranges
                0x000018c8       0x20 c:/program files/microchip/xc32/v2.41/bin/bin/../../lib/gcc/pic32c/6.2.1/../../../../pic32c/lib\libc_nano.a(lib_a-nano-callocr.o)
 .debug_aranges
                0x000018e8       0x20 c:/program files/microchip/xc32/v2.41/bin/bin/../../lib/gcc/pic32c/6.2.1/../../../../pic32c/lib\libc_nano.a(lib_a-nano-reallocr.o)
 .debug_aranges
                0x00001908       0x20 c:/program files/microchip/xc32/v2.41/bin/bin/../../lib/gcc/pic32c/6.2.1/../../../../pic32c/lib\libc_nano.a(lib_a-readr.o)
 .debug_aranges
                0x00001928       0x28 c:/program files/microchip/xc32/v2.41/bin/bin/../../lib/gcc/pic32c/6.2.1/../../../../pic32c/lib\libc_nano.a(lib_a-wcrtomb.o)
 .debug_aranges
                0x00001950       0x28 c:/program files/microchip/xc32/v2.41/bin/bin/../../lib/gcc/pic32c/6.2.1/../../../../pic32c/lib\libc_nano.a(lib_a-wctomb_r.o)
 .debug_aranges
                0x00001978       0x18 c:/program files/microchip/xc32/v2.41/bin/bin/../../lib/gcc/pic32c/6.2.1/../../../../pic32c/lib\libc_nano.a(lib_a-ctype_.o)
 .debug_aranges
                0x00001990       0x20 c:/program files/microchip/xc32/v2.41/bin/bin/../../lib/gcc/pic32c/6.2.1/../../../../pic32c/lib\libc_nano.a(lib_a-nano-msizer.o)
 .debug_aranges
                0x000019b0       0x20 c:/program files/microchip/xc32/v2.41/bin/bin/../../lib/gcc/pic32c/6.2.1/../../../../pic32c/lib\libpic32c.a(_close.o)
 .debug_aranges
                0x000019d0       0x20 c:/program files/microchip/xc32/v2.41/bin/bin/../../lib/gcc/pic32c/6.2.1/../../../../pic32c/lib\libpic32c.a(_fstat.o)
 .debug_aranges
                0x000019f0       0x20 c:/program files/microchip/xc32/v2.41/bin/bin/../../lib/gcc/pic32c/6.2.1/../../../../pic32c/lib\libpic32c.a(_isatty.o)
 .debug_aranges
                0x00001a10       0x20 c:/program files/microchip/xc32/v2.41/bin/bin/../../lib/gcc/pic32c/6.2.1/../../../../pic32c/lib\libpic32c.a(_lseek.o)
 .debug_aranges
                0x00001a30       0x20 c:/program files/microchip/xc32/v2.41/bin/bin/../../lib/gcc/pic32c/6.2.1/../../../../pic32c/lib\libpic32c.a(_read.o)
 .debug_aranges
                0x00001a50       0x20 c:/program files/microchip/xc32/v2.41/bin/bin/../../lib/gcc/pic32c/6.2.1/../../../../pic32c/lib\libpic32c.a(sbrk.o)
 .debug_aranges
                0x00001a70       0x20 c:/program files/microchip/xc32/v2.41/bin/bin/../../lib/gcc/pic32c/6.2.1/../../../../pic32c/lib\libpic32c.a(_write.o)
 .debug_aranges
                0x00001a90       0x20 c:/program files/microchip/xc32/v2.41/bin/bin/../../lib/gcc/pic32c/6.2.1/../../../../pic32c/lib\libpic32c.a(close.o)
 .debug_aranges
                0x00001ab0       0x20 c:/program files/microchip/xc32/v2.41/bin/bin/../../lib/gcc/pic32c/6.2.1/../../../../pic32c/lib\libpic32c.a(fstat.o)
 .debug_aranges
                0x00001ad0       0x20 c:/program files/microchip/xc32/v2.41/bin/bin/../../lib/gcc/pic32c/6.2.1/../../../../pic32c/lib\libpic32c.a(isatty.o)
 .debug_aranges
                0x00001af0       0x20 c:/program files/microchip/xc32/v2.41/bin/bin/../../lib/gcc/pic32c/6.2.1/../../../../pic32c/lib\libpic32c.a(lseek.o)
 .debug_aranges
                0x00001b10       0x20 c:/program files/microchip/xc32/v2.41/bin/bin/../../lib/gcc/pic32c/6.2.1/../../../../pic32c/lib\libpic32c.a(read.o)
 .debug_aranges
                0x00001b30       0x20 c:/program files/microchip/xc32/v2.41/bin/bin/../../lib/gcc/pic32c/6.2.1/../../../../pic32c/lib\libpic32c.a(write.o)
 .debug_aranges
                0x00001b50       0x20 c:/program files/microchip/xc32/v2.41/bin/bin/../../lib/gcc/pic32c/6.2.1\libgcc.a(_thumb1_case_uqi.o)
 .debug_aranges
                0x00001b70       0x20 c:/program files/microchip/xc32/v2.41/bin/bin/../../lib/gcc/pic32c/6.2.1\libgcc.a(_arm_cmpdf2.o)
 .debug_aranges
                0x00001b90       0x20 c:/program files/microchip/xc32/v2.41/bin/bin/../../lib/gcc/pic32c/6.2.1\libgcc.a(adddf3.o)
 .debug_aranges
                0x00001bb0       0x20 c:/program files/microchip/xc32/v2.41/bin/bin/../../lib/gcc/pic32c/6.2.1\libgcc.a(divdf3.o)
 .debug_aranges
                0x00001bd0       0x20 c:/program files/microchip/xc32/v2.41/bin/bin/../../lib/gcc/pic32c/6.2.1\libgcc.a(eqdf2.o)
 .debug_aranges
                0x00001bf0       0x20 c:/program files/microchip/xc32/v2.41/bin/bin/../../lib/gcc/pic32c/6.2.1\libgcc.a(gedf2.o)
 .debug_aranges
                0x00001c10       0x20 c:/program files/microchip/xc32/v2.41/bin/bin/../../lib/gcc/pic32c/6.2.1\libgcc.a(ledf2.o)
 .debug_aranges
                0x00001c30       0x20 c:/program files/microchip/xc32/v2.41/bin/bin/../../lib/gcc/pic32c/6.2.1\libgcc.a(muldf3.o)
 .debug_aranges
                0x00001c50       0x20 c:/program files/microchip/xc32/v2.41/bin/bin/../../lib/gcc/pic32c/6.2.1\libgcc.a(subdf3.o)
 .debug_aranges
                0x00001c70       0x20 c:/program files/microchip/xc32/v2.41/bin/bin/../../lib/gcc/pic32c/6.2.1\libgcc.a(unorddf2.o)
 .debug_aranges
                0x00001c90       0x20 c:/program files/microchip/xc32/v2.41/bin/bin/../../lib/gcc/pic32c/6.2.1\libgcc.a(fixdfsi.o)
 .debug_aranges
                0x00001cb0       0x20 c:/program files/microchip/xc32/v2.41/bin/bin/../../lib/gcc/pic32c/6.2.1\libgcc.a(floatsidf.o)
 .debug_aranges
                0x00001cd0       0x20 c:/program files/microchip/xc32/v2.41/bin/bin/../../lib/gcc/pic32c/6.2.1\libgcc.a(floatunsidf.o)
 .debug_aranges
                0x00001cf0       0x20 c:/program files/microchip/xc32/v2.41/bin/bin/../../lib/gcc/pic32c/6.2.1\libgcc.a(_thumb1_case_uhi.o)

.debug_ranges   0x00000000     0x29d8
 .debug_ranges  0x00000000       0x50 build/default/production/_ext/1593096446/plib_nvmctrl.o
 .debug_ranges  0x00000050       0xa0 build/default/production/_ext/308758920/usb_host_msd.o
 .debug_ranges  0x000000f0       0xd0 build/default/production/_ext/308758920/usb_host_scsi.o
 .debug_ranges  0x000001c0       0x10 build/default/production/_ext/1986646378/plib_evsys.o
 .debug_ranges  0x000001d0       0x10 build/default/production/_ext/1360937237/main.o
 .debug_ranges  0x000001e0       0x10 build/default/production/_ext/1171490990/initialization.o
 .debug_ranges  0x000001f0       0x10 build/default/production/_ext/1171490990/interrupts.o
 .debug_ranges  0x00000200       0x18 build/default/production/_ext/1171490990/exceptions.o
 .debug_ranges  0x00000218       0x18 build/default/production/_ext/163028504/xc32_monitor.o
 .debug_ranges  0x00000230       0x50 build/default/production/_ext/1865521619/plib_port.o
 .debug_ranges  0x00000280       0x28 build/default/production/_ext/1984496892/plib_clock.o
 .debug_ranges  0x000002a8       0x10 build/default/production/_ext/1865468468/plib_nvic.o
 .debug_ranges  0x000002b8       0x10 build/default/production/_ext/1171490990/startup_xc32.o
 .debug_ranges  0x000002c8       0x80 build/default/production/_ext/504274921/plib_sercom5_usart.o
 .debug_ranges  0x00000348       0x68 build/default/production/_ext/829342655/plib_tc3.o
 .debug_ranges  0x000003b0      0x1a0 build/default/production/_ext/101884895/sys_time.o
 .debug_ranges  0x00000550      0x2a8 build/default/production/_ext/308758920/usb_host.o
 .debug_ranges  0x000007f8      0x5a0 build/default/production/_ext/1269487135/sys_fs.o
 .debug_ranges  0x00000d98      0x128 build/default/production/_ext/1269487135/sys_fs_media_manager.o
 .debug_ranges  0x00000ec0      0x120 build/default/production/_ext/1269487135/sys_fs_fat_interface.o
 .debug_ranges  0x00000fe0      0x3e0 build/default/production/_ext/411819097/ff.o
 .debug_ranges  0x000013c0       0x20 build/default/production/_ext/411819097/ffunicode.o
 .debug_ranges  0x000013e0       0x60 build/default/production/_ext/565198302/diskio.o
 .debug_ranges  0x00001440       0x70 build/default/production/_ext/818654064/drv_usbfsv1.o
 .debug_ranges  0x000014b0      0x160 build/default/production/_ext/818654064/drv_usbfsv1_host.o
 .debug_ranges  0x00001610       0x30 build/default/production/_ext/1881668453/sys_int.o
 .debug_ranges  0x00001640       0x70 build/default/production/_ext/1360937237/app.o
 .debug_ranges  0x000016b0       0x10 build/default/production/_ext/1171490990/tasks.o
 .debug_ranges  0x000016c0       0x10 c:/program files/microchip/xc32/v2.41/bin/bin/../../lib/gcc/pic32c/6.2.1/../../../../pic32c/lib\libpic32c.a(data_init.o)
 .debug_ranges  0x000016d0       0x28 c:/program files/microchip/xc32/v2.41/bin/bin/../../lib/gcc/pic32c/6.2.1\libgcc.a(_muldi3.o)
 .debug_ranges  0x000016f8       0x10 c:/program files/microchip/xc32/v2.41/bin/bin/../../lib/gcc/pic32c/6.2.1/../../../../pic32c/lib\libc_nano.a(lib_a-init.o)
 .debug_ranges  0x00001708       0x18 c:/program files/microchip/xc32/v2.41/bin/bin/../../lib/gcc/pic32c/6.2.1/../../../../pic32c/lib\libc_nano.a(lib_a-malloc.o)
 .debug_ranges  0x00001720       0x10 c:/program files/microchip/xc32/v2.41/bin/bin/../../lib/gcc/pic32c/6.2.1/../../../../pic32c/lib\libc_nano.a(lib_a-memcpy-stub.o)
 .debug_ranges  0x00001730       0x10 c:/program files/microchip/xc32/v2.41/bin/bin/../../lib/gcc/pic32c/6.2.1/../../../../pic32c/lib\libc_nano.a(lib_a-memset.o)
 .debug_ranges  0x00001740       0x28 c:/program files/microchip/xc32/v2.41/bin/bin/../../lib/gcc/pic32c/6.2.1/../../../../pic32c/lib\libc_nano.a(lib_a-nano-freer.o)
 .debug_ranges  0x00001768       0x60 c:/program files/microchip/xc32/v2.41/bin/bin/../../lib/gcc/pic32c/6.2.1/../../../../pic32c/lib\libc_nano.a(lib_a-nano-mallocr.o)
 .debug_ranges  0x000017c8       0x18 c:/program files/microchip/xc32/v2.41/bin/bin/../../lib/gcc/pic32c/6.2.1/../../../../pic32c/lib\libc_nano.a(lib_a-printf.o)
 .debug_ranges  0x000017e0       0x10 c:/program files/microchip/xc32/v2.41/bin/bin/../../lib/gcc/pic32c/6.2.1/../../../../pic32c/lib\libc_nano.a(lib_a-sbrkr.o)
 .debug_ranges  0x000017f0       0x10 c:/program files/microchip/xc32/v2.41/bin/bin/../../lib/gcc/pic32c/6.2.1/../../../../pic32c/lib\libc_nano.a(_lib_a-scanf.s.o)
 .debug_ranges  0x00001800       0x10 c:/program files/microchip/xc32/v2.41/bin/bin/../../lib/gcc/pic32c/6.2.1/../../../../pic32c/lib\libc_nano.a(lib_a-setbuf.o)
 .debug_ranges  0x00001810       0x28 c:/program files/microchip/xc32/v2.41/bin/bin/../../lib/gcc/pic32c/6.2.1/../../../../pic32c/lib\libc_nano.a(lib_a-setvbuf.o)
 .debug_ranges  0x00001838       0x18 c:/program files/microchip/xc32/v2.41/bin/bin/../../lib/gcc/pic32c/6.2.1/../../../../pic32c/lib\libc_nano.a(lib_a-sprintf.o)
 .debug_ranges  0x00001850       0x10 c:/program files/microchip/xc32/v2.41/bin/bin/../../lib/gcc/pic32c/6.2.1/../../../../pic32c/lib\libc_nano.a(lib_a-strncmp.o)
 .debug_ranges  0x00001860       0x10 c:/program files/microchip/xc32/v2.41/bin/bin/../../lib/gcc/pic32c/6.2.1/../../../../pic32c/lib\libc_nano.a(lib_a-strncpy.o)
 .debug_ranges  0x00001870       0x68 c:/program files/microchip/xc32/v2.41/bin/bin/../../lib/gcc/pic32c/6.2.1/../../../../pic32c/lib\libc_nano.a(lib_a-fflush.o)
 .debug_ranges  0x000018d8       0x38 c:/program files/microchip/xc32/v2.41/bin/bin/../../lib/gcc/pic32c/6.2.1/../../../../pic32c/lib\libc_nano.a(lib_a-findfp.o)
 .debug_ranges  0x00001910       0x18 c:/program files/microchip/xc32/v2.41/bin/bin/../../lib/gcc/pic32c/6.2.1/../../../../pic32c/lib\libc_nano.a(lib_a-fwalk.o)
 .debug_ranges  0x00001928       0x30 c:/program files/microchip/xc32/v2.41/bin/bin/../../lib/gcc/pic32c/6.2.1/../../../../pic32c/lib\libc_nano.a(lib_a-makebuf.o)
 .debug_ranges  0x00001958       0x10 c:/program files/microchip/xc32/v2.41/bin/bin/../../lib/gcc/pic32c/6.2.1/../../../../pic32c/lib\libc_nano.a(lib_a-mlock.o)
 .debug_ranges  0x00001968       0x10 c:/program files/microchip/xc32/v2.41/bin/bin/../../lib/gcc/pic32c/6.2.1/../../../../pic32c/lib\libc_nano.a(lib_a-nano-svfprintf.o)
 .debug_ranges  0x00001978      0x1b0 c:/program files/microchip/xc32/v2.41/bin/bin/../../lib/gcc/pic32c/6.2.1/../../../../pic32c/lib\libc_nano.a(_lib_a-nano-vfprintf.cdeEfFgGnopsuxX.o)
 .debug_ranges  0x00001b28       0x90 c:/program files/microchip/xc32/v2.41/bin/bin/../../lib/gcc/pic32c/6.2.1/../../../../pic32c/lib\libc_nano.a(lib_a-nano-vfprintf_i.o)
 .debug_ranges  0x00001bb8       0x30 c:/program files/microchip/xc32/v2.41/bin/bin/../../lib/gcc/pic32c/6.2.1/../../../../pic32c/lib\libc_nano.a(lib_a-nano-vfprintf.o)
 .debug_ranges  0x00001be8       0x88 c:/program files/microchip/xc32/v2.41/bin/bin/../../lib/gcc/pic32c/6.2.1/../../../../pic32c/lib\libc_nano.a(_lib_a-nano-vfscanf.s.o)
 .debug_ranges  0x00001c70       0x48 c:/program files/microchip/xc32/v2.41/bin/bin/../../lib/gcc/pic32c/6.2.1/../../../../pic32c/lib\libc_nano.a(lib_a-reent.o)
 .debug_ranges  0x00001cb8       0x30 c:/program files/microchip/xc32/v2.41/bin/bin/../../lib/gcc/pic32c/6.2.1/../../../../pic32c/lib\libc_nano.a(lib_a-refill.o)
 .debug_ranges  0x00001ce8       0x10 c:/program files/microchip/xc32/v2.41/bin/bin/../../lib/gcc/pic32c/6.2.1/../../../../pic32c/lib\libc_nano.a(lib_a-sccl.o)
 .debug_ranges  0x00001cf8       0x30 c:/program files/microchip/xc32/v2.41/bin/bin/../../lib/gcc/pic32c/6.2.1/../../../../pic32c/lib\libc_nano.a(lib_a-__ssfputs.o)
 .debug_ranges  0x00001d28       0x30 c:/program files/microchip/xc32/v2.41/bin/bin/../../lib/gcc/pic32c/6.2.1/../../../../pic32c/lib\libc_nano.a(lib_a-__ssputs.o)
 .debug_ranges  0x00001d58       0x30 c:/program files/microchip/xc32/v2.41/bin/bin/../../lib/gcc/pic32c/6.2.1/../../../../pic32c/lib\libc_nano.a(lib_a-stdio.o)
 .debug_ranges  0x00001d88       0x30 c:/program files/microchip/xc32/v2.41/bin/bin/../../lib/gcc/pic32c/6.2.1/../../../../pic32c/lib\libc_nano.a(lib_a-wbuf.o)
 .debug_ranges  0x00001db8       0x10 c:/program files/microchip/xc32/v2.41/bin/bin/../../lib/gcc/pic32c/6.2.1/../../../../pic32c/lib\libc_nano.a(lib_a-writer.o)
 .debug_ranges  0x00001dc8       0x38 c:/program files/microchip/xc32/v2.41/bin/bin/../../lib/gcc/pic32c/6.2.1/../../../../pic32c/lib\libc_nano.a(lib_a-wsetup.o)
 .debug_ranges  0x00001e00       0x10 c:/program files/microchip/xc32/v2.41/bin/bin/../../lib/gcc/pic32c/6.2.1/../../../../pic32c/lib\libc_nano.a(lib_a-closer.o)
 .debug_ranges  0x00001e10       0x30 c:/program files/microchip/xc32/v2.41/bin/bin/../../lib/gcc/pic32c/6.2.1/../../../../pic32c/lib\libc_nano.a(lib_a-dtoa.o)
 .debug_ranges  0x00001e40       0x50 c:/program files/microchip/xc32/v2.41/bin/bin/../../lib/gcc/pic32c/6.2.1/../../../../pic32c/lib\libc_nano.a(lib_a-fputwc.o)
 .debug_ranges  0x00001e90       0x10 c:/program files/microchip/xc32/v2.41/bin/bin/../../lib/gcc/pic32c/6.2.1/../../../../pic32c/lib\libc_nano.a(lib_a-fstatr.o)
 .debug_ranges  0x00001ea0       0x10 c:/program files/microchip/xc32/v2.41/bin/bin/../../lib/gcc/pic32c/6.2.1/../../../../pic32c/lib\libc_nano.a(lib_a-isattyr.o)
 .debug_ranges  0x00001eb0       0x20 c:/program files/microchip/xc32/v2.41/bin/bin/../../lib/gcc/pic32c/6.2.1/../../../../pic32c/lib\libc_nano.a(lib_a-localeconv.o)
 .debug_ranges  0x00001ed0       0x30 c:/program files/microchip/xc32/v2.41/bin/bin/../../lib/gcc/pic32c/6.2.1/../../../../pic32c/lib\libc_nano.a(lib_a-locale.o)
 .debug_ranges  0x00001f00       0x10 c:/program files/microchip/xc32/v2.41/bin/bin/../../lib/gcc/pic32c/6.2.1/../../../../pic32c/lib\libc_nano.a(lib_a-lseekr.o)
 .debug_ranges  0x00001f10       0x18 c:/program files/microchip/xc32/v2.41/bin/bin/../../lib/gcc/pic32c/6.2.1/../../../../pic32c/lib\libc_nano.a(lib_a-mbtowc_r.o)
 .debug_ranges  0x00001f28       0x10 c:/program files/microchip/xc32/v2.41/bin/bin/../../lib/gcc/pic32c/6.2.1/../../../../pic32c/lib\libc_nano.a(lib_a-memchr-stub.o)
 .debug_ranges  0x00001f38       0x10 c:/program files/microchip/xc32/v2.41/bin/bin/../../lib/gcc/pic32c/6.2.1/../../../../pic32c/lib\libc_nano.a(lib_a-memmove.o)
 .debug_ranges  0x00001f48       0xd0 c:/program files/microchip/xc32/v2.41/bin/bin/../../lib/gcc/pic32c/6.2.1/../../../../pic32c/lib\libc_nano.a(lib_a-mprec.o)
 .debug_ranges  0x00002018       0x10 c:/program files/microchip/xc32/v2.41/bin/bin/../../lib/gcc/pic32c/6.2.1/../../../../pic32c/lib\libc_nano.a(lib_a-nano-callocr.o)
 .debug_ranges  0x00002028       0x10 c:/program files/microchip/xc32/v2.41/bin/bin/../../lib/gcc/pic32c/6.2.1/../../../../pic32c/lib\libc_nano.a(lib_a-nano-reallocr.o)
 .debug_ranges  0x00002038       0x10 c:/program files/microchip/xc32/v2.41/bin/bin/../../lib/gcc/pic32c/6.2.1/../../../../pic32c/lib\libc_nano.a(lib_a-readr.o)
 .debug_ranges  0x00002048       0x30 c:/program files/microchip/xc32/v2.41/bin/bin/../../lib/gcc/pic32c/6.2.1/../../../../pic32c/lib\libc_nano.a(lib_a-wcrtomb.o)
 .debug_ranges  0x00002078       0x18 c:/program files/microchip/xc32/v2.41/bin/bin/../../lib/gcc/pic32c/6.2.1/../../../../pic32c/lib\libc_nano.a(lib_a-wctomb_r.o)
 .debug_ranges  0x00002090       0x10 c:/program files/microchip/xc32/v2.41/bin/bin/../../lib/gcc/pic32c/6.2.1/../../../../pic32c/lib\libc_nano.a(lib_a-nano-msizer.o)
 .debug_ranges  0x000020a0       0x10 c:/program files/microchip/xc32/v2.41/bin/bin/../../lib/gcc/pic32c/6.2.1/../../../../pic32c/lib\libpic32c.a(_close.o)
 .debug_ranges  0x000020b0       0x10 c:/program files/microchip/xc32/v2.41/bin/bin/../../lib/gcc/pic32c/6.2.1/../../../../pic32c/lib\libpic32c.a(_fstat.o)
 .debug_ranges  0x000020c0       0x10 c:/program files/microchip/xc32/v2.41/bin/bin/../../lib/gcc/pic32c/6.2.1/../../../../pic32c/lib\libpic32c.a(_isatty.o)
 .debug_ranges  0x000020d0       0x10 c:/program files/microchip/xc32/v2.41/bin/bin/../../lib/gcc/pic32c/6.2.1/../../../../pic32c/lib\libpic32c.a(_lseek.o)
 .debug_ranges  0x000020e0       0x10 c:/program files/microchip/xc32/v2.41/bin/bin/../../lib/gcc/pic32c/6.2.1/../../../../pic32c/lib\libpic32c.a(_read.o)
 .debug_ranges  0x000020f0       0x10 c:/program files/microchip/xc32/v2.41/bin/bin/../../lib/gcc/pic32c/6.2.1/../../../../pic32c/lib\libpic32c.a(sbrk.o)
 .debug_ranges  0x00002100       0x10 c:/program files/microchip/xc32/v2.41/bin/bin/../../lib/gcc/pic32c/6.2.1/../../../../pic32c/lib\libpic32c.a(_write.o)
 .debug_ranges  0x00002110       0x10 c:/program files/microchip/xc32/v2.41/bin/bin/../../lib/gcc/pic32c/6.2.1/../../../../pic32c/lib\libpic32c.a(close.o)
 .debug_ranges  0x00002120       0x10 c:/program files/microchip/xc32/v2.41/bin/bin/../../lib/gcc/pic32c/6.2.1/../../../../pic32c/lib\libpic32c.a(fstat.o)
 .debug_ranges  0x00002130       0x10 c:/program files/microchip/xc32/v2.41/bin/bin/../../lib/gcc/pic32c/6.2.1/../../../../pic32c/lib\libpic32c.a(isatty.o)
 .debug_ranges  0x00002140       0x10 c:/program files/microchip/xc32/v2.41/bin/bin/../../lib/gcc/pic32c/6.2.1/../../../../pic32c/lib\libpic32c.a(lseek.o)
 .debug_ranges  0x00002150       0x10 c:/program files/microchip/xc32/v2.41/bin/bin/../../lib/gcc/pic32c/6.2.1/../../../../pic32c/lib\libpic32c.a(read.o)
 .debug_ranges  0x00002160       0x10 c:/program files/microchip/xc32/v2.41/bin/bin/../../lib/gcc/pic32c/6.2.1/../../../../pic32c/lib\libpic32c.a(write.o)
 .debug_ranges  0x00002170      0x1b0 c:/program files/microchip/xc32/v2.41/bin/bin/../../lib/gcc/pic32c/6.2.1\libgcc.a(adddf3.o)
 .debug_ranges  0x00002320      0x178 c:/program files/microchip/xc32/v2.41/bin/bin/../../lib/gcc/pic32c/6.2.1\libgcc.a(divdf3.o)
 .debug_ranges  0x00002498       0x50 c:/program files/microchip/xc32/v2.41/bin/bin/../../lib/gcc/pic32c/6.2.1\libgcc.a(eqdf2.o)
 .debug_ranges  0x000024e8       0x30 c:/program files/microchip/xc32/v2.41/bin/bin/../../lib/gcc/pic32c/6.2.1\libgcc.a(gedf2.o)
 .debug_ranges  0x00002518       0x48 c:/program files/microchip/xc32/v2.41/bin/bin/../../lib/gcc/pic32c/6.2.1\libgcc.a(ledf2.o)
 .debug_ranges  0x00002560      0x1d0 c:/program files/microchip/xc32/v2.41/bin/bin/../../lib/gcc/pic32c/6.2.1\libgcc.a(muldf3.o)
 .debug_ranges  0x00002730      0x1b8 c:/program files/microchip/xc32/v2.41/bin/bin/../../lib/gcc/pic32c/6.2.1\libgcc.a(subdf3.o)
 .debug_ranges  0x000028e8       0x40 c:/program files/microchip/xc32/v2.41/bin/bin/../../lib/gcc/pic32c/6.2.1\libgcc.a(unorddf2.o)
 .debug_ranges  0x00002928       0x18 c:/program files/microchip/xc32/v2.41/bin/bin/../../lib/gcc/pic32c/6.2.1\libgcc.a(fixdfsi.o)
 .debug_ranges  0x00002940       0x50 c:/program files/microchip/xc32/v2.41/bin/bin/../../lib/gcc/pic32c/6.2.1\libgcc.a(floatsidf.o)
 .debug_ranges  0x00002990       0x48 c:/program files/microchip/xc32/v2.41/bin/bin/../../lib/gcc/pic32c/6.2.1\libgcc.a(floatunsidf.o)

.debug_line     0x00000000    0x15ad0
 .debug_line    0x00000000      0x255 build/default/production/_ext/1593096446/plib_nvmctrl.o
 .debug_line    0x00000255      0x61b build/default/production/_ext/308758920/usb_host_msd.o
 .debug_line    0x00000870      0x6bb build/default/production/_ext/308758920/usb_host_scsi.o
 .debug_line    0x00000f2b       0x64 build/default/production/_ext/1986646378/plib_evsys.o
 .debug_line    0x00000f8f      0x378 build/default/production/_ext/1360937237/main.o
 .debug_line    0x00001307      0x699 build/default/production/_ext/1171490990/initialization.o
 .debug_line    0x000019a0      0x3f2 build/default/production/_ext/1171490990/interrupts.o
 .debug_line    0x00001d92      0x385 build/default/production/_ext/1171490990/exceptions.o
 .debug_line    0x00002117      0x3ef build/default/production/_ext/163028504/xc32_monitor.o
 .debug_line    0x00002506      0x1d5 build/default/production/_ext/1865521619/plib_port.o
 .debug_line    0x000026db      0x167 build/default/production/_ext/1984496892/plib_clock.o
 .debug_line    0x00002842      0x195 build/default/production/_ext/1865468468/plib_nvic.o
 .debug_line    0x000029d7      0x3cd build/default/production/_ext/1171490990/startup_xc32.o
 .debug_line    0x00002da4      0x310 build/default/production/_ext/504274921/plib_sercom5_usart.o
 .debug_line    0x000030b4      0x22e build/default/production/_ext/829342655/plib_tc3.o
 .debug_line    0x000032e2      0x7d3 build/default/production/_ext/101884895/sys_time.o
 .debug_line    0x00003ab5      0x3ba build/default/production/_ext/1171490990/usb_host_init_data.o
 .debug_line    0x00003e6f     0x1232 build/default/production/_ext/308758920/usb_host.o
 .debug_line    0x000050a1      0xfb8 build/default/production/_ext/1269487135/sys_fs.o
 .debug_line    0x00006059      0x610 build/default/production/_ext/1269487135/sys_fs_media_manager.o
 .debug_line    0x00006669      0x4d4 build/default/production/_ext/1269487135/sys_fs_fat_interface.o
 .debug_line    0x00006b3d     0x13a3 build/default/production/_ext/411819097/ff.o
 .debug_line    0x00007ee0      0x17a build/default/production/_ext/411819097/ffunicode.o
 .debug_line    0x0000805a      0x2e4 build/default/production/_ext/565198302/diskio.o
 .debug_line    0x0000833e      0x6e0 build/default/production/_ext/818654064/drv_usbfsv1.o
 .debug_line    0x00008a1e      0xdf1 build/default/production/_ext/818654064/drv_usbfsv1_host.o
 .debug_line    0x0000980f      0x252 build/default/production/_ext/1881668453/sys_int.o
 .debug_line    0x00009a61      0x4ec build/default/production/_ext/1360937237/app.o
 .debug_line    0x00009f4d      0x3b4 build/default/production/_ext/1171490990/tasks.o
 .debug_line    0x0000a301       0xe3 c:/program files/microchip/xc32/v2.41/bin/bin/../../lib/gcc/pic32c/6.2.1/../../../../pic32c/lib\libpic32c.a(data_init.o)
 .debug_line    0x0000a3e4       0xb3 c:/program files/microchip/xc32/v2.41/bin/bin/../../lib/gcc/pic32c/6.2.1\libgcc.a(_udivsi3.o)
 .debug_line    0x0000a497       0xc1 c:/program files/microchip/xc32/v2.41/bin/bin/../../lib/gcc/pic32c/6.2.1\libgcc.a(_divsi3.o)
 .debug_line    0x0000a558       0x9c c:/program files/microchip/xc32/v2.41/bin/bin/../../lib/gcc/pic32c/6.2.1\libgcc.a(_dvmd_tls.o)
 .debug_line    0x0000a5f4       0xa7 c:/program files/microchip/xc32/v2.41/bin/bin/../../lib/gcc/pic32c/6.2.1\libgcc.a(_aeabi_uldivmod.o)
 .debug_line    0x0000a69b      0x296 c:/program files/microchip/xc32/v2.41/bin/bin/../../lib/gcc/pic32c/6.2.1\libgcc.a(_muldi3.o)
 .debug_line    0x0000a931      0x2b2 c:/program files/microchip/xc32/v2.41/bin/bin/../../lib/gcc/pic32c/6.2.1\libgcc.a(_udivmoddi4.o)
 .debug_line    0x0000abe3       0xa7 c:/program files/microchip/xc32/v2.41/bin/bin/../../lib/gcc/pic32c/6.2.1\libgcc.a(_lshrdi3.o)
 .debug_line    0x0000ac8a       0xa7 c:/program files/microchip/xc32/v2.41/bin/bin/../../lib/gcc/pic32c/6.2.1\libgcc.a(_ashldi3.o)
 .debug_line    0x0000ad31       0xa6 c:/program files/microchip/xc32/v2.41/bin/bin/../../lib/gcc/pic32c/6.2.1\libgcc.a(_clzdi2.o)
 .debug_line    0x0000add7       0xb0 c:/program files/microchip/xc32/v2.41/bin/bin/../../lib/gcc/pic32c/6.2.1\libgcc.a(_clzsi2.o)
 .debug_line    0x0000ae87      0x17e c:/program files/microchip/xc32/v2.41/bin/bin/../../lib/gcc/pic32c/6.2.1/../../../../pic32c/lib\libc_nano.a(lib_a-impure.o)
 .debug_line    0x0000b005      0x118 c:/program files/microchip/xc32/v2.41/bin/bin/../../lib/gcc/pic32c/6.2.1/../../../../pic32c/lib\libc_nano.a(lib_a-init.o)
 .debug_line    0x0000b11d      0x224 c:/program files/microchip/xc32/v2.41/bin/bin/../../lib/gcc/pic32c/6.2.1/../../../../pic32c/lib\libc_nano.a(lib_a-malloc.o)
 .debug_line    0x0000b341      0x21c c:/program files/microchip/xc32/v2.41/bin/bin/../../lib/gcc/pic32c/6.2.1/../../../../pic32c/lib\libc_nano.a(lib_a-memcpy-stub.o)
 .debug_line    0x0000b55d      0x2ad c:/program files/microchip/xc32/v2.41/bin/bin/../../lib/gcc/pic32c/6.2.1/../../../../pic32c/lib\libc_nano.a(lib_a-memset.o)
 .debug_line    0x0000b80a      0x1d4 c:/program files/microchip/xc32/v2.41/bin/bin/../../lib/gcc/pic32c/6.2.1/../../../../pic32c/lib\libc_nano.a(lib_a-nano-freer.o)
 .debug_line    0x0000b9de      0x259 c:/program files/microchip/xc32/v2.41/bin/bin/../../lib/gcc/pic32c/6.2.1/../../../../pic32c/lib\libc_nano.a(lib_a-nano-mallocr.o)
 .debug_line    0x0000bc37      0x263 c:/program files/microchip/xc32/v2.41/bin/bin/../../lib/gcc/pic32c/6.2.1/../../../../pic32c/lib\libc_nano.a(lib_a-printf.o)
 .debug_line    0x0000be9a      0x214 c:/program files/microchip/xc32/v2.41/bin/bin/../../lib/gcc/pic32c/6.2.1/../../../../pic32c/lib\libc_nano.a(lib_a-sbrkr.o)
 .debug_line    0x0000c0ae      0x1c7 c:/program files/microchip/xc32/v2.41/bin/bin/../../lib/gcc/pic32c/6.2.1/../../../../pic32c/lib\libc_nano.a(_lib_a-scanf.s.o)
 .debug_line    0x0000c275      0x225 c:/program files/microchip/xc32/v2.41/bin/bin/../../lib/gcc/pic32c/6.2.1/../../../../pic32c/lib\libc_nano.a(lib_a-setbuf.o)
 .debug_line    0x0000c49a      0x283 c:/program files/microchip/xc32/v2.41/bin/bin/../../lib/gcc/pic32c/6.2.1/../../../../pic32c/lib\libc_nano.a(lib_a-setvbuf.o)
 .debug_line    0x0000c71d      0x27a c:/program files/microchip/xc32/v2.41/bin/bin/../../lib/gcc/pic32c/6.2.1/../../../../pic32c/lib\libc_nano.a(lib_a-sprintf.o)
 .debug_line    0x0000c997       0xb1 c:/program files/microchip/xc32/v2.41/bin/bin/../../lib/gcc/pic32c/6.2.1/../../../../pic32c/lib\libc_nano.a(lib_a-strcmp.o)
 .debug_line    0x0000ca48       0xb1 c:/program files/microchip/xc32/v2.41/bin/bin/../../lib/gcc/pic32c/6.2.1/../../../../pic32c/lib\libc_nano.a(lib_a-strlen.o)
 .debug_line    0x0000caf9      0x20d c:/program files/microchip/xc32/v2.41/bin/bin/../../lib/gcc/pic32c/6.2.1/../../../../pic32c/lib\libc_nano.a(lib_a-strncmp.o)
 .debug_line    0x0000cd06      0x20f c:/program files/microchip/xc32/v2.41/bin/bin/../../lib/gcc/pic32c/6.2.1/../../../../pic32c/lib\libc_nano.a(lib_a-strncpy.o)
 .debug_line    0x0000cf15      0x2d3 c:/program files/microchip/xc32/v2.41/bin/bin/../../lib/gcc/pic32c/6.2.1/../../../../pic32c/lib\libc_nano.a(lib_a-fflush.o)
 .debug_line    0x0000d1e8      0x315 c:/program files/microchip/xc32/v2.41/bin/bin/../../lib/gcc/pic32c/6.2.1/../../../../pic32c/lib\libc_nano.a(lib_a-findfp.o)
 .debug_line    0x0000d4fd      0x269 c:/program files/microchip/xc32/v2.41/bin/bin/../../lib/gcc/pic32c/6.2.1/../../../../pic32c/lib\libc_nano.a(lib_a-fwalk.o)
 .debug_line    0x0000d766      0x328 c:/program files/microchip/xc32/v2.41/bin/bin/../../lib/gcc/pic32c/6.2.1/../../../../pic32c/lib\libc_nano.a(lib_a-makebuf.o)
 .debug_line    0x0000da8e      0x18e c:/program files/microchip/xc32/v2.41/bin/bin/../../lib/gcc/pic32c/6.2.1/../../../../pic32c/lib\libc_nano.a(lib_a-mlock.o)
 .debug_line    0x0000dc1c      0x425 c:/program files/microchip/xc32/v2.41/bin/bin/../../lib/gcc/pic32c/6.2.1/../../../../pic32c/lib\libc_nano.a(lib_a-nano-svfprintf.o)
 .debug_line    0x0000e041      0x59a c:/program files/microchip/xc32/v2.41/bin/bin/../../lib/gcc/pic32c/6.2.1/../../../../pic32c/lib\libc_nano.a(_lib_a-nano-vfprintf.cdeEfFgGnopsuxX.o)
 .debug_line    0x0000e5db      0x490 c:/program files/microchip/xc32/v2.41/bin/bin/../../lib/gcc/pic32c/6.2.1/../../../../pic32c/lib\libc_nano.a(lib_a-nano-vfprintf_i.o)
 .debug_line    0x0000ea6b      0x447 c:/program files/microchip/xc32/v2.41/bin/bin/../../lib/gcc/pic32c/6.2.1/../../../../pic32c/lib\libc_nano.a(lib_a-nano-vfprintf.o)
 .debug_line    0x0000eeb2      0x488 c:/program files/microchip/xc32/v2.41/bin/bin/../../lib/gcc/pic32c/6.2.1/../../../../pic32c/lib\libc_nano.a(_lib_a-nano-vfscanf.s.o)
 .debug_line    0x0000f33a      0x23f c:/program files/microchip/xc32/v2.41/bin/bin/../../lib/gcc/pic32c/6.2.1/../../../../pic32c/lib\libc_nano.a(lib_a-reent.o)
 .debug_line    0x0000f579      0x29a c:/program files/microchip/xc32/v2.41/bin/bin/../../lib/gcc/pic32c/6.2.1/../../../../pic32c/lib\libc_nano.a(lib_a-refill.o)
 .debug_line    0x0000f813      0x240 c:/program files/microchip/xc32/v2.41/bin/bin/../../lib/gcc/pic32c/6.2.1/../../../../pic32c/lib\libc_nano.a(lib_a-sccl.o)
 .debug_line    0x0000fa53      0x365 c:/program files/microchip/xc32/v2.41/bin/bin/../../lib/gcc/pic32c/6.2.1/../../../../pic32c/lib\libc_nano.a(lib_a-__ssfputs.o)
 .debug_line    0x0000fdb8      0x393 c:/program files/microchip/xc32/v2.41/bin/bin/../../lib/gcc/pic32c/6.2.1/../../../../pic32c/lib\libc_nano.a(lib_a-__ssputs.o)
 .debug_line    0x0001014b      0x2a3 c:/program files/microchip/xc32/v2.41/bin/bin/../../lib/gcc/pic32c/6.2.1/../../../../pic32c/lib\libc_nano.a(lib_a-stdio.o)
 .debug_line    0x000103ee      0x27d c:/program files/microchip/xc32/v2.41/bin/bin/../../lib/gcc/pic32c/6.2.1/../../../../pic32c/lib\libc_nano.a(lib_a-wbuf.o)
 .debug_line    0x0001066b      0x211 c:/program files/microchip/xc32/v2.41/bin/bin/../../lib/gcc/pic32c/6.2.1/../../../../pic32c/lib\libc_nano.a(lib_a-writer.o)
 .debug_line    0x0001087c      0x26c c:/program files/microchip/xc32/v2.41/bin/bin/../../lib/gcc/pic32c/6.2.1/../../../../pic32c/lib\libc_nano.a(lib_a-wsetup.o)
 .debug_line    0x00010ae8      0x215 c:/program files/microchip/xc32/v2.41/bin/bin/../../lib/gcc/pic32c/6.2.1/../../../../pic32c/lib\libc_nano.a(lib_a-closer.o)
 .debug_line    0x00010cfd      0x65e c:/program files/microchip/xc32/v2.41/bin/bin/../../lib/gcc/pic32c/6.2.1/../../../../pic32c/lib\libc_nano.a(lib_a-dtoa.o)
 .debug_line    0x0001135b      0x2a0 c:/program files/microchip/xc32/v2.41/bin/bin/../../lib/gcc/pic32c/6.2.1/../../../../pic32c/lib\libc_nano.a(lib_a-fputwc.o)
 .debug_line    0x000115fb      0x2c3 c:/program files/microchip/xc32/v2.41/bin/bin/../../lib/gcc/pic32c/6.2.1/../../../../pic32c/lib\libc_nano.a(lib_a-fstatr.o)
 .debug_line    0x000118be      0x216 c:/program files/microchip/xc32/v2.41/bin/bin/../../lib/gcc/pic32c/6.2.1/../../../../pic32c/lib\libc_nano.a(lib_a-isattyr.o)
 .debug_line    0x00011ad4      0x268 c:/program files/microchip/xc32/v2.41/bin/bin/../../lib/gcc/pic32c/6.2.1/../../../../pic32c/lib\libc_nano.a(lib_a-localeconv.o)
 .debug_line    0x00011d3c      0x32f c:/program files/microchip/xc32/v2.41/bin/bin/../../lib/gcc/pic32c/6.2.1/../../../../pic32c/lib\libc_nano.a(lib_a-locale.o)
 .debug_line    0x0001206b      0x211 c:/program files/microchip/xc32/v2.41/bin/bin/../../lib/gcc/pic32c/6.2.1/../../../../pic32c/lib\libc_nano.a(lib_a-lseekr.o)
 .debug_line    0x0001227c      0x2d9 c:/program files/microchip/xc32/v2.41/bin/bin/../../lib/gcc/pic32c/6.2.1/../../../../pic32c/lib\libc_nano.a(lib_a-mbtowc_r.o)
 .debug_line    0x00012555      0x21c c:/program files/microchip/xc32/v2.41/bin/bin/../../lib/gcc/pic32c/6.2.1/../../../../pic32c/lib\libc_nano.a(lib_a-memchr-stub.o)
 .debug_line    0x00012771      0x2b9 c:/program files/microchip/xc32/v2.41/bin/bin/../../lib/gcc/pic32c/6.2.1/../../../../pic32c/lib\libc_nano.a(lib_a-memmove.o)
 .debug_line    0x00012a2a      0x6f2 c:/program files/microchip/xc32/v2.41/bin/bin/../../lib/gcc/pic32c/6.2.1/../../../../pic32c/lib\libc_nano.a(lib_a-mprec.o)
 .debug_line    0x0001311c      0x219 c:/program files/microchip/xc32/v2.41/bin/bin/../../lib/gcc/pic32c/6.2.1/../../../../pic32c/lib\libc_nano.a(lib_a-nano-callocr.o)
 .debug_line    0x00013335      0x223 c:/program files/microchip/xc32/v2.41/bin/bin/../../lib/gcc/pic32c/6.2.1/../../../../pic32c/lib\libc_nano.a(lib_a-nano-reallocr.o)
 .debug_line    0x00013558      0x210 c:/program files/microchip/xc32/v2.41/bin/bin/../../lib/gcc/pic32c/6.2.1/../../../../pic32c/lib\libc_nano.a(lib_a-readr.o)
 .debug_line    0x00013768      0x2ee c:/program files/microchip/xc32/v2.41/bin/bin/../../lib/gcc/pic32c/6.2.1/../../../../pic32c/lib\libc_nano.a(lib_a-wcrtomb.o)
 .debug_line    0x00013a56      0x2cf c:/program files/microchip/xc32/v2.41/bin/bin/../../lib/gcc/pic32c/6.2.1/../../../../pic32c/lib\libc_nano.a(lib_a-wctomb_r.o)
 .debug_line    0x00013d25      0x21e c:/program files/microchip/xc32/v2.41/bin/bin/../../lib/gcc/pic32c/6.2.1/../../../../pic32c/lib\libc_nano.a(lib_a-ctype_.o)
 .debug_line    0x00013f43      0x1a4 c:/program files/microchip/xc32/v2.41/bin/bin/../../lib/gcc/pic32c/6.2.1/../../../../pic32c/lib\libc_nano.a(lib_a-nano-msizer.o)
 .debug_line    0x000140e7       0x9d c:/program files/microchip/xc32/v2.41/bin/bin/../../lib/gcc/pic32c/6.2.1/../../../../pic32c/lib\libpic32c.a(_close.o)
 .debug_line    0x00014184       0x9d c:/program files/microchip/xc32/v2.41/bin/bin/../../lib/gcc/pic32c/6.2.1/../../../../pic32c/lib\libpic32c.a(_fstat.o)
 .debug_line    0x00014221       0x9e c:/program files/microchip/xc32/v2.41/bin/bin/../../lib/gcc/pic32c/6.2.1/../../../../pic32c/lib\libpic32c.a(_isatty.o)
 .debug_line    0x000142bf       0x9d c:/program files/microchip/xc32/v2.41/bin/bin/../../lib/gcc/pic32c/6.2.1/../../../../pic32c/lib\libpic32c.a(_lseek.o)
 .debug_line    0x0001435c       0x9c c:/program files/microchip/xc32/v2.41/bin/bin/../../lib/gcc/pic32c/6.2.1/../../../../pic32c/lib\libpic32c.a(_read.o)
 .debug_line    0x000143f8       0xa4 c:/program files/microchip/xc32/v2.41/bin/bin/../../lib/gcc/pic32c/6.2.1/../../../../pic32c/lib\libpic32c.a(sbrk.o)
 .debug_line    0x0001449c       0x9d c:/program files/microchip/xc32/v2.41/bin/bin/../../lib/gcc/pic32c/6.2.1/../../../../pic32c/lib\libpic32c.a(_write.o)
 .debug_line    0x00014539       0x9b c:/program files/microchip/xc32/v2.41/bin/bin/../../lib/gcc/pic32c/6.2.1/../../../../pic32c/lib\libpic32c.a(close.o)
 .debug_line    0x000145d4      0x104 c:/program files/microchip/xc32/v2.41/bin/bin/../../lib/gcc/pic32c/6.2.1/../../../../pic32c/lib\libpic32c.a(fstat.o)
 .debug_line    0x000146d8       0x9c c:/program files/microchip/xc32/v2.41/bin/bin/../../lib/gcc/pic32c/6.2.1/../../../../pic32c/lib\libpic32c.a(isatty.o)
 .debug_line    0x00014774       0x9b c:/program files/microchip/xc32/v2.41/bin/bin/../../lib/gcc/pic32c/6.2.1/../../../../pic32c/lib\libpic32c.a(lseek.o)
 .debug_line    0x0001480f       0xae c:/program files/microchip/xc32/v2.41/bin/bin/../../lib/gcc/pic32c/6.2.1/../../../../pic32c/lib\libpic32c.a(read.o)
 .debug_line    0x000148bd       0xae c:/program files/microchip/xc32/v2.41/bin/bin/../../lib/gcc/pic32c/6.2.1/../../../../pic32c/lib\libpic32c.a(write.o)
 .debug_line    0x0001496b       0xa4 c:/program files/microchip/xc32/v2.41/bin/bin/../../lib/gcc/pic32c/6.2.1\libgcc.a(_thumb1_case_uqi.o)
 .debug_line    0x00014a0f       0xb4 c:/program files/microchip/xc32/v2.41/bin/bin/../../lib/gcc/pic32c/6.2.1\libgcc.a(_arm_cmpdf2.o)
 .debug_line    0x00014ac3      0x1c8 c:/program files/microchip/xc32/v2.41/bin/bin/../../lib/gcc/pic32c/6.2.1\libgcc.a(adddf3.o)
 .debug_line    0x00014c8b      0x1a4 c:/program files/microchip/xc32/v2.41/bin/bin/../../lib/gcc/pic32c/6.2.1\libgcc.a(divdf3.o)
 .debug_line    0x00014e2f      0x14c c:/program files/microchip/xc32/v2.41/bin/bin/../../lib/gcc/pic32c/6.2.1\libgcc.a(eqdf2.o)
 .debug_line    0x00014f7b      0x14c c:/program files/microchip/xc32/v2.41/bin/bin/../../lib/gcc/pic32c/6.2.1\libgcc.a(gedf2.o)
 .debug_line    0x000150c7      0x14f c:/program files/microchip/xc32/v2.41/bin/bin/../../lib/gcc/pic32c/6.2.1\libgcc.a(ledf2.o)
 .debug_line    0x00015216      0x182 c:/program files/microchip/xc32/v2.41/bin/bin/../../lib/gcc/pic32c/6.2.1\libgcc.a(muldf3.o)
 .debug_line    0x00015398      0x1cd c:/program files/microchip/xc32/v2.41/bin/bin/../../lib/gcc/pic32c/6.2.1\libgcc.a(subdf3.o)
 .debug_line    0x00015565      0x141 c:/program files/microchip/xc32/v2.41/bin/bin/../../lib/gcc/pic32c/6.2.1\libgcc.a(unorddf2.o)
 .debug_line    0x000156a6      0x12f c:/program files/microchip/xc32/v2.41/bin/bin/../../lib/gcc/pic32c/6.2.1\libgcc.a(fixdfsi.o)
 .debug_line    0x000157d5      0x12a c:/program files/microchip/xc32/v2.41/bin/bin/../../lib/gcc/pic32c/6.2.1\libgcc.a(floatsidf.o)
 .debug_line    0x000158ff      0x12c c:/program files/microchip/xc32/v2.41/bin/bin/../../lib/gcc/pic32c/6.2.1\libgcc.a(floatunsidf.o)
 .debug_line    0x00015a2b       0xa5 c:/program files/microchip/xc32/v2.41/bin/bin/../../lib/gcc/pic32c/6.2.1\libgcc.a(_thumb1_case_uhi.o)

.debug_str      0x00000000     0x35a9
 .debug_str     0x00000000       0x16 build/default/production/_ext/1593096446/plib_nvmctrl.o
 .debug_str     0x00000016      0x311 build/default/production/_ext/308758920/usb_host_msd.o
 .debug_str     0x00000327      0x171 build/default/production/_ext/308758920/usb_host_scsi.o
 .debug_str     0x00000498        0x0 build/default/production/_ext/1986646378/plib_evsys.o
 .debug_str     0x00000498       0x55 build/default/production/_ext/1360937237/main.o
 .debug_str     0x000004ed      0x20f build/default/production/_ext/1171490990/initialization.o
 .debug_str     0x000006fc       0x3c build/default/production/_ext/1171490990/interrupts.o
 .debug_str     0x00000738       0x3c build/default/production/_ext/1171490990/exceptions.o
 .debug_str     0x00000774       0x63 build/default/production/_ext/163028504/xc32_monitor.o
 .debug_str     0x000007d7        0xb build/default/production/_ext/1865521619/plib_port.o
 .debug_str     0x000007e2       0x28 build/default/production/_ext/1984496892/plib_clock.o
 .debug_str     0x0000080a        0xa build/default/production/_ext/1865468468/plib_nvic.o
 .debug_str     0x00000814       0xa7 build/default/production/_ext/1171490990/startup_xc32.o
 .debug_str     0x000008bb      0x102 build/default/production/_ext/504274921/plib_sercom5_usart.o
 .debug_str     0x000009bd       0xa7 build/default/production/_ext/829342655/plib_tc3.o
 .debug_str     0x00000a64      0x14e build/default/production/_ext/101884895/sys_time.o
 .debug_str     0x00000bb2       0x3c build/default/production/_ext/1171490990/usb_host_init_data.o
 .debug_str     0x00000bee      0x474 build/default/production/_ext/308758920/usb_host.o
 .debug_str     0x00001062      0x15a build/default/production/_ext/1269487135/sys_fs.o
 .debug_str     0x000011bc      0x111 build/default/production/_ext/1269487135/sys_fs_media_manager.o
 .debug_str     0x000012cd       0x96 build/default/production/_ext/1269487135/sys_fs_fat_interface.o
 .debug_str     0x00001363       0x80 build/default/production/_ext/411819097/ff.o
 .debug_str     0x000013e3        0x0 build/default/production/_ext/411819097/ffunicode.o
 .debug_str     0x000013e3       0xf4 build/default/production/_ext/565198302/diskio.o
 .debug_str     0x000014d7      0x2c6 build/default/production/_ext/818654064/drv_usbfsv1.o
 .debug_str     0x0000179d      0x436 build/default/production/_ext/818654064/drv_usbfsv1_host.o
 .debug_str     0x00001bd3       0x10 build/default/production/_ext/1881668453/sys_int.o
 .debug_str     0x00001be3      0x146 build/default/production/_ext/1360937237/app.o
 .debug_str     0x00001d29       0x74 build/default/production/_ext/1171490990/tasks.o
 .debug_str     0x00001d9d        0x0 c:/program files/microchip/xc32/v2.41/bin/bin/../../lib/gcc/pic32c/6.2.1/../../../../pic32c/lib\libpic32c.a(data_init.o)
 .debug_str     0x00001d9d        0x0 c:/program files/microchip/xc32/v2.41/bin/bin/../../lib/gcc/pic32c/6.2.1\libgcc.a(_muldi3.o)
 .debug_str     0x00001d9d        0x0 c:/program files/microchip/xc32/v2.41/bin/bin/../../lib/gcc/pic32c/6.2.1\libgcc.a(_udivmoddi4.o)
 .debug_str     0x00001d9d        0x9 c:/program files/microchip/xc32/v2.41/bin/bin/../../lib/gcc/pic32c/6.2.1/../../../../pic32c/lib\libc_nano.a(lib_a-impure.o)
 .debug_str     0x00001da6        0x0 c:/program files/microchip/xc32/v2.41/bin/bin/../../lib/gcc/pic32c/6.2.1/../../../../pic32c/lib\libc_nano.a(lib_a-init.o)
 .debug_str     0x00001da6       0x13 c:/program files/microchip/xc32/v2.41/bin/bin/../../lib/gcc/pic32c/6.2.1/../../../../pic32c/lib\libc_nano.a(lib_a-malloc.o)
 .debug_str     0x00001db9        0x9 c:/program files/microchip/xc32/v2.41/bin/bin/../../lib/gcc/pic32c/6.2.1/../../../../pic32c/lib\libc_nano.a(lib_a-memcpy-stub.o)
 .debug_str     0x00001dc2      0x114 c:/program files/microchip/xc32/v2.41/bin/bin/../../lib/gcc/pic32c/6.2.1/../../../../pic32c/lib\libc_nano.a(lib_a-memset.o)
 .debug_str     0x00001ed6       0x27 c:/program files/microchip/xc32/v2.41/bin/bin/../../lib/gcc/pic32c/6.2.1/../../../../pic32c/lib\libc_nano.a(lib_a-nano-freer.o)
 .debug_str     0x00001efd       0x31 c:/program files/microchip/xc32/v2.41/bin/bin/../../lib/gcc/pic32c/6.2.1/../../../../pic32c/lib\libc_nano.a(lib_a-nano-mallocr.o)
 .debug_str     0x00001f2e       0x15 c:/program files/microchip/xc32/v2.41/bin/bin/../../lib/gcc/pic32c/6.2.1/../../../../pic32c/lib\libc_nano.a(lib_a-printf.o)
 .debug_str     0x00001f43        0x9 c:/program files/microchip/xc32/v2.41/bin/bin/../../lib/gcc/pic32c/6.2.1/../../../../pic32c/lib\libc_nano.a(lib_a-sbrkr.o)
 .debug_str     0x00001f4c       0x14 c:/program files/microchip/xc32/v2.41/bin/bin/../../lib/gcc/pic32c/6.2.1/../../../../pic32c/lib\libc_nano.a(_lib_a-scanf.s.o)
 .debug_str     0x00001f60        0x9 c:/program files/microchip/xc32/v2.41/bin/bin/../../lib/gcc/pic32c/6.2.1/../../../../pic32c/lib\libc_nano.a(lib_a-setbuf.o)
 .debug_str     0x00001f69       0x20 c:/program files/microchip/xc32/v2.41/bin/bin/../../lib/gcc/pic32c/6.2.1/../../../../pic32c/lib\libc_nano.a(lib_a-setvbuf.o)
 .debug_str     0x00001f89       0x16 c:/program files/microchip/xc32/v2.41/bin/bin/../../lib/gcc/pic32c/6.2.1/../../../../pic32c/lib\libc_nano.a(lib_a-sprintf.o)
 .debug_str     0x00001f9f        0x9 c:/program files/microchip/xc32/v2.41/bin/bin/../../lib/gcc/pic32c/6.2.1/../../../../pic32c/lib\libc_nano.a(lib_a-strncmp.o)
 .debug_str     0x00001fa8        0x9 c:/program files/microchip/xc32/v2.41/bin/bin/../../lib/gcc/pic32c/6.2.1/../../../../pic32c/lib\libc_nano.a(lib_a-strncpy.o)
 .debug_str     0x00001fb1       0x16 c:/program files/microchip/xc32/v2.41/bin/bin/../../lib/gcc/pic32c/6.2.1/../../../../pic32c/lib\libc_nano.a(lib_a-fflush.o)
 .debug_str     0x00001fc7       0x20 c:/program files/microchip/xc32/v2.41/bin/bin/../../lib/gcc/pic32c/6.2.1/../../../../pic32c/lib\libc_nano.a(lib_a-findfp.o)
 .debug_str     0x00001fe7        0x9 c:/program files/microchip/xc32/v2.41/bin/bin/../../lib/gcc/pic32c/6.2.1/../../../../pic32c/lib\libc_nano.a(lib_a-fwalk.o)
 .debug_str     0x00001ff0       0x31 c:/program files/microchip/xc32/v2.41/bin/bin/../../lib/gcc/pic32c/6.2.1/../../../../pic32c/lib\libc_nano.a(lib_a-makebuf.o)
 .debug_str     0x00002021        0x9 c:/program files/microchip/xc32/v2.41/bin/bin/../../lib/gcc/pic32c/6.2.1/../../../../pic32c/lib\libc_nano.a(lib_a-mlock.o)
 .debug_str     0x0000202a      0x141 c:/program files/microchip/xc32/v2.41/bin/bin/../../lib/gcc/pic32c/6.2.1/../../../../pic32c/lib\libc_nano.a(lib_a-nano-svfprintf.o)
 .debug_str     0x0000216b      0x150 c:/program files/microchip/xc32/v2.41/bin/bin/../../lib/gcc/pic32c/6.2.1/../../../../pic32c/lib\libc_nano.a(_lib_a-nano-vfprintf.cdeEfFgGnopsuxX.o)
 .debug_str     0x000022bb      0x11b c:/program files/microchip/xc32/v2.41/bin/bin/../../lib/gcc/pic32c/6.2.1/../../../../pic32c/lib\libc_nano.a(lib_a-nano-vfprintf_i.o)
 .debug_str     0x000023d6      0x144 c:/program files/microchip/xc32/v2.41/bin/bin/../../lib/gcc/pic32c/6.2.1/../../../../pic32c/lib\libc_nano.a(lib_a-nano-vfprintf.o)
 .debug_str     0x0000251a      0x143 c:/program files/microchip/xc32/v2.41/bin/bin/../../lib/gcc/pic32c/6.2.1/../../../../pic32c/lib\libc_nano.a(_lib_a-nano-vfscanf.s.o)
 .debug_str     0x0000265d        0x9 c:/program files/microchip/xc32/v2.41/bin/bin/../../lib/gcc/pic32c/6.2.1/../../../../pic32c/lib\libc_nano.a(lib_a-reent.o)
 .debug_str     0x00002666       0x2b c:/program files/microchip/xc32/v2.41/bin/bin/../../lib/gcc/pic32c/6.2.1/../../../../pic32c/lib\libc_nano.a(lib_a-refill.o)
 .debug_str     0x00002691        0x9 c:/program files/microchip/xc32/v2.41/bin/bin/../../lib/gcc/pic32c/6.2.1/../../../../pic32c/lib\libc_nano.a(lib_a-sccl.o)
 .debug_str     0x0000269a      0x128 c:/program files/microchip/xc32/v2.41/bin/bin/../../lib/gcc/pic32c/6.2.1/../../../../pic32c/lib\libc_nano.a(lib_a-__ssfputs.o)
 .debug_str     0x000027c2      0x129 c:/program files/microchip/xc32/v2.41/bin/bin/../../lib/gcc/pic32c/6.2.1/../../../../pic32c/lib\libc_nano.a(lib_a-__ssputs.o)
 .debug_str     0x000028eb       0x2b c:/program files/microchip/xc32/v2.41/bin/bin/../../lib/gcc/pic32c/6.2.1/../../../../pic32c/lib\libc_nano.a(lib_a-stdio.o)
 .debug_str     0x00002916       0x1f c:/program files/microchip/xc32/v2.41/bin/bin/../../lib/gcc/pic32c/6.2.1/../../../../pic32c/lib\libc_nano.a(lib_a-wbuf.o)
 .debug_str     0x00002935       0x10 c:/program files/microchip/xc32/v2.41/bin/bin/../../lib/gcc/pic32c/6.2.1/../../../../pic32c/lib\libc_nano.a(lib_a-writer.o)
 .debug_str     0x00002945       0x16 c:/program files/microchip/xc32/v2.41/bin/bin/../../lib/gcc/pic32c/6.2.1/../../../../pic32c/lib\libc_nano.a(lib_a-wsetup.o)
 .debug_str     0x0000295b       0x10 c:/program files/microchip/xc32/v2.41/bin/bin/../../lib/gcc/pic32c/6.2.1/../../../../pic32c/lib\libc_nano.a(lib_a-closer.o)
 .debug_str     0x0000296b      0x147 c:/program files/microchip/xc32/v2.41/bin/bin/../../lib/gcc/pic32c/6.2.1/../../../../pic32c/lib\libc_nano.a(lib_a-dtoa.o)
 .debug_str     0x00002ab2       0x32 c:/program files/microchip/xc32/v2.41/bin/bin/../../lib/gcc/pic32c/6.2.1/../../../../pic32c/lib\libc_nano.a(lib_a-fputwc.o)
 .debug_str     0x00002ae4        0x9 c:/program files/microchip/xc32/v2.41/bin/bin/../../lib/gcc/pic32c/6.2.1/../../../../pic32c/lib\libc_nano.a(lib_a-fstatr.o)
 .debug_str     0x00002aed        0x9 c:/program files/microchip/xc32/v2.41/bin/bin/../../lib/gcc/pic32c/6.2.1/../../../../pic32c/lib\libc_nano.a(lib_a-isattyr.o)
 .debug_str     0x00002af6      0x114 c:/program files/microchip/xc32/v2.41/bin/bin/../../lib/gcc/pic32c/6.2.1/../../../../pic32c/lib\libc_nano.a(lib_a-localeconv.o)
 .debug_str     0x00002c0a      0x134 c:/program files/microchip/xc32/v2.41/bin/bin/../../lib/gcc/pic32c/6.2.1/../../../../pic32c/lib\libc_nano.a(lib_a-locale.o)
 .debug_str     0x00002d3e        0x9 c:/program files/microchip/xc32/v2.41/bin/bin/../../lib/gcc/pic32c/6.2.1/../../../../pic32c/lib\libc_nano.a(lib_a-lseekr.o)
 .debug_str     0x00002d47      0x114 c:/program files/microchip/xc32/v2.41/bin/bin/../../lib/gcc/pic32c/6.2.1/../../../../pic32c/lib\libc_nano.a(lib_a-mbtowc_r.o)
 .debug_str     0x00002e5b        0x9 c:/program files/microchip/xc32/v2.41/bin/bin/../../lib/gcc/pic32c/6.2.1/../../../../pic32c/lib\libc_nano.a(lib_a-memchr-stub.o)
 .debug_str     0x00002e64      0x114 c:/program files/microchip/xc32/v2.41/bin/bin/../../lib/gcc/pic32c/6.2.1/../../../../pic32c/lib\libc_nano.a(lib_a-memmove.o)
 .debug_str     0x00002f78      0x11e c:/program files/microchip/xc32/v2.41/bin/bin/../../lib/gcc/pic32c/6.2.1/../../../../pic32c/lib\libc_nano.a(lib_a-mprec.o)
 .debug_str     0x00003096       0x13 c:/program files/microchip/xc32/v2.41/bin/bin/../../lib/gcc/pic32c/6.2.1/../../../../pic32c/lib\libc_nano.a(lib_a-nano-callocr.o)
 .debug_str     0x000030a9       0x29 c:/program files/microchip/xc32/v2.41/bin/bin/../../lib/gcc/pic32c/6.2.1/../../../../pic32c/lib\libc_nano.a(lib_a-nano-reallocr.o)
 .debug_str     0x000030d2        0x9 c:/program files/microchip/xc32/v2.41/bin/bin/../../lib/gcc/pic32c/6.2.1/../../../../pic32c/lib\libc_nano.a(lib_a-readr.o)
 .debug_str     0x000030db      0x114 c:/program files/microchip/xc32/v2.41/bin/bin/../../lib/gcc/pic32c/6.2.1/../../../../pic32c/lib\libc_nano.a(lib_a-wcrtomb.o)
 .debug_str     0x000031ef      0x114 c:/program files/microchip/xc32/v2.41/bin/bin/../../lib/gcc/pic32c/6.2.1/../../../../pic32c/lib\libc_nano.a(lib_a-wctomb_r.o)
 .debug_str     0x00003303      0x114 c:/program files/microchip/xc32/v2.41/bin/bin/../../lib/gcc/pic32c/6.2.1/../../../../pic32c/lib\libc_nano.a(lib_a-ctype_.o)
 .debug_str     0x00003417        0x9 c:/program files/microchip/xc32/v2.41/bin/bin/../../lib/gcc/pic32c/6.2.1/../../../../pic32c/lib\libc_nano.a(lib_a-nano-msizer.o)
 .debug_str     0x00003420        0x0 c:/program files/microchip/xc32/v2.41/bin/bin/../../lib/gcc/pic32c/6.2.1/../../../../pic32c/lib\libpic32c.a(_close.o)
 .debug_str     0x00003420        0x0 c:/program files/microchip/xc32/v2.41/bin/bin/../../lib/gcc/pic32c/6.2.1/../../../../pic32c/lib\libpic32c.a(_fstat.o)
 .debug_str     0x00003420        0x0 c:/program files/microchip/xc32/v2.41/bin/bin/../../lib/gcc/pic32c/6.2.1/../../../../pic32c/lib\libpic32c.a(_isatty.o)
 .debug_str     0x00003420        0x0 c:/program files/microchip/xc32/v2.41/bin/bin/../../lib/gcc/pic32c/6.2.1/../../../../pic32c/lib\libpic32c.a(_lseek.o)
 .debug_str     0x00003420        0x0 c:/program files/microchip/xc32/v2.41/bin/bin/../../lib/gcc/pic32c/6.2.1/../../../../pic32c/lib\libpic32c.a(_read.o)
 .debug_str     0x00003420        0x0 c:/program files/microchip/xc32/v2.41/bin/bin/../../lib/gcc/pic32c/6.2.1/../../../../pic32c/lib\libpic32c.a(sbrk.o)
 .debug_str     0x00003420        0x0 c:/program files/microchip/xc32/v2.41/bin/bin/../../lib/gcc/pic32c/6.2.1/../../../../pic32c/lib\libpic32c.a(_write.o)
 .debug_str     0x00003420        0x0 c:/program files/microchip/xc32/v2.41/bin/bin/../../lib/gcc/pic32c/6.2.1/../../../../pic32c/lib\libpic32c.a(close.o)
 .debug_str     0x00003420        0x0 c:/program files/microchip/xc32/v2.41/bin/bin/../../lib/gcc/pic32c/6.2.1/../../../../pic32c/lib\libpic32c.a(fstat.o)
 .debug_str     0x00003420        0x0 c:/program files/microchip/xc32/v2.41/bin/bin/../../lib/gcc/pic32c/6.2.1/../../../../pic32c/lib\libpic32c.a(isatty.o)
 .debug_str     0x00003420        0x0 c:/program files/microchip/xc32/v2.41/bin/bin/../../lib/gcc/pic32c/6.2.1/../../../../pic32c/lib\libpic32c.a(lseek.o)
 .debug_str     0x00003420        0x0 c:/program files/microchip/xc32/v2.41/bin/bin/../../lib/gcc/pic32c/6.2.1/../../../../pic32c/lib\libpic32c.a(read.o)
 .debug_str     0x00003420        0x0 c:/program files/microchip/xc32/v2.41/bin/bin/../../lib/gcc/pic32c/6.2.1/../../../../pic32c/lib\libpic32c.a(write.o)
 .debug_str     0x00003420       0x2c c:/program files/microchip/xc32/v2.41/bin/bin/../../lib/gcc/pic32c/6.2.1\libgcc.a(adddf3.o)
 .debug_str     0x0000344c       0x30 c:/program files/microchip/xc32/v2.41/bin/bin/../../lib/gcc/pic32c/6.2.1\libgcc.a(divdf3.o)
 .debug_str     0x0000347c       0x26 c:/program files/microchip/xc32/v2.41/bin/bin/../../lib/gcc/pic32c/6.2.1\libgcc.a(eqdf2.o)
 .debug_str     0x000034a2       0x26 c:/program files/microchip/xc32/v2.41/bin/bin/../../lib/gcc/pic32c/6.2.1\libgcc.a(gedf2.o)
 .debug_str     0x000034c8       0x26 c:/program files/microchip/xc32/v2.41/bin/bin/../../lib/gcc/pic32c/6.2.1\libgcc.a(ledf2.o)
 .debug_str     0x000034ee       0x56 c:/program files/microchip/xc32/v2.41/bin/bin/../../lib/gcc/pic32c/6.2.1\libgcc.a(muldf3.o)
 .debug_str     0x00003544       0x2c c:/program files/microchip/xc32/v2.41/bin/bin/../../lib/gcc/pic32c/6.2.1\libgcc.a(subdf3.o)
 .debug_str     0x00003570       0x26 c:/program files/microchip/xc32/v2.41/bin/bin/../../lib/gcc/pic32c/6.2.1\libgcc.a(unorddf2.o)
 .debug_str     0x00003596       0x13 c:/program files/microchip/xc32/v2.41/bin/bin/../../lib/gcc/pic32c/6.2.1\libgcc.a(fixdfsi.o)
 .debug_str     0x000035a9        0x0 c:/program files/microchip/xc32/v2.41/bin/bin/../../lib/gcc/pic32c/6.2.1\libgcc.a(floatsidf.o)
 .debug_str     0x000035a9        0x0 c:/program files/microchip/xc32/v2.41/bin/bin/../../lib/gcc/pic32c/6.2.1\libgcc.a(floatunsidf.o)

.debug_frame    0x00000000     0x3ee4
 .debug_frame   0x00000000       0xb0 build/default/production/_ext/1593096446/plib_nvmctrl.o
 .debug_frame   0x000000b0      0x188 build/default/production/_ext/308758920/usb_host_msd.o
 .debug_frame   0x00000238      0x230 build/default/production/_ext/308758920/usb_host_scsi.o
 .debug_frame   0x00000468       0x20 build/default/production/_ext/1986646378/plib_evsys.o
 .debug_frame   0x00000488       0x28 build/default/production/_ext/1360937237/main.o
 .debug_frame   0x000004b0       0x28 build/default/production/_ext/1171490990/initialization.o
 .debug_frame   0x000004d8       0x20 build/default/production/_ext/1171490990/interrupts.o
 .debug_frame   0x000004f8       0x30 build/default/production/_ext/1171490990/exceptions.o
 .debug_frame   0x00000528       0x40 build/default/production/_ext/163028504/xc32_monitor.o
 .debug_frame   0x00000568       0xa0 build/default/production/_ext/1865521619/plib_port.o
 .debug_frame   0x00000608       0x20 build/default/production/_ext/1984496892/plib_clock.o
 .debug_frame   0x00000628       0x20 build/default/production/_ext/1865468468/plib_nvic.o
 .debug_frame   0x00000648       0x28 build/default/production/_ext/1171490990/startup_xc32.o
 .debug_frame   0x00000670      0x124 build/default/production/_ext/504274921/plib_sercom5_usart.o
 .debug_frame   0x00000794       0xd8 build/default/production/_ext/829342655/plib_tc3.o
 .debug_frame   0x0000086c      0x398 build/default/production/_ext/101884895/sys_time.o
 .debug_frame   0x00000c04      0x660 build/default/production/_ext/308758920/usb_host.o
 .debug_frame   0x00001264      0x4cc build/default/production/_ext/1269487135/sys_fs.o
 .debug_frame   0x00001730      0x1cc build/default/production/_ext/1269487135/sys_fs_media_manager.o
 .debug_frame   0x000018fc      0x344 build/default/production/_ext/1269487135/sys_fs_fat_interface.o
 .debug_frame   0x00001c40      0x830 build/default/production/_ext/411819097/ff.o
 .debug_frame   0x00002470       0x50 build/default/production/_ext/411819097/ffunicode.o
 .debug_frame   0x000024c0       0xc8 build/default/production/_ext/565198302/diskio.o
 .debug_frame   0x00002588      0x12c build/default/production/_ext/818654064/drv_usbfsv1.o
 .debug_frame   0x000026b4      0x354 build/default/production/_ext/818654064/drv_usbfsv1_host.o
 .debug_frame   0x00002a08       0x6c build/default/production/_ext/1881668453/sys_int.o
 .debug_frame   0x00002a74       0x7c build/default/production/_ext/1360937237/app.o
 .debug_frame   0x00002af0       0x28 build/default/production/_ext/1171490990/tasks.o
 .debug_frame   0x00002b18       0x2c c:/program files/microchip/xc32/v2.41/bin/bin/../../lib/gcc/pic32c/6.2.1/../../../../pic32c/lib\libpic32c.a(data_init.o)
 .debug_frame   0x00002b44       0x20 c:/program files/microchip/xc32/v2.41/bin/bin/../../lib/gcc/pic32c/6.2.1\libgcc.a(_udivsi3.o)
 .debug_frame   0x00002b64       0x20 c:/program files/microchip/xc32/v2.41/bin/bin/../../lib/gcc/pic32c/6.2.1\libgcc.a(_divsi3.o)
 .debug_frame   0x00002b84       0x34 c:/program files/microchip/xc32/v2.41/bin/bin/../../lib/gcc/pic32c/6.2.1\libgcc.a(_muldi3.o)
 .debug_frame   0x00002bb8       0x30 c:/program files/microchip/xc32/v2.41/bin/bin/../../lib/gcc/pic32c/6.2.1\libgcc.a(_udivmoddi4.o)
 .debug_frame   0x00002be8       0x2c c:/program files/microchip/xc32/v2.41/bin/bin/../../lib/gcc/pic32c/6.2.1/../../../../pic32c/lib\libc_nano.a(lib_a-init.o)
 .debug_frame   0x00002c14       0x40 c:/program files/microchip/xc32/v2.41/bin/bin/../../lib/gcc/pic32c/6.2.1/../../../../pic32c/lib\libc_nano.a(lib_a-malloc.o)
 .debug_frame   0x00002c54       0x28 c:/program files/microchip/xc32/v2.41/bin/bin/../../lib/gcc/pic32c/6.2.1/../../../../pic32c/lib\libc_nano.a(lib_a-memcpy-stub.o)
 .debug_frame   0x00002c7c       0x20 c:/program files/microchip/xc32/v2.41/bin/bin/../../lib/gcc/pic32c/6.2.1/../../../../pic32c/lib\libc_nano.a(lib_a-memset.o)
 .debug_frame   0x00002c9c       0x2c c:/program files/microchip/xc32/v2.41/bin/bin/../../lib/gcc/pic32c/6.2.1/../../../../pic32c/lib\libc_nano.a(lib_a-nano-freer.o)
 .debug_frame   0x00002cc8       0x2c c:/program files/microchip/xc32/v2.41/bin/bin/../../lib/gcc/pic32c/6.2.1/../../../../pic32c/lib\libc_nano.a(lib_a-nano-mallocr.o)
 .debug_frame   0x00002cf4       0x50 c:/program files/microchip/xc32/v2.41/bin/bin/../../lib/gcc/pic32c/6.2.1/../../../../pic32c/lib\libc_nano.a(lib_a-printf.o)
 .debug_frame   0x00002d44       0x2c c:/program files/microchip/xc32/v2.41/bin/bin/../../lib/gcc/pic32c/6.2.1/../../../../pic32c/lib\libc_nano.a(lib_a-sbrkr.o)
 .debug_frame   0x00002d70       0x30 c:/program files/microchip/xc32/v2.41/bin/bin/../../lib/gcc/pic32c/6.2.1/../../../../pic32c/lib\libc_nano.a(_lib_a-scanf.s.o)
 .debug_frame   0x00002da0       0x28 c:/program files/microchip/xc32/v2.41/bin/bin/../../lib/gcc/pic32c/6.2.1/../../../../pic32c/lib\libc_nano.a(lib_a-setbuf.o)
 .debug_frame   0x00002dc8       0x30 c:/program files/microchip/xc32/v2.41/bin/bin/../../lib/gcc/pic32c/6.2.1/../../../../pic32c/lib\libc_nano.a(lib_a-setvbuf.o)
 .debug_frame   0x00002df8       0x50 c:/program files/microchip/xc32/v2.41/bin/bin/../../lib/gcc/pic32c/6.2.1/../../../../pic32c/lib\libc_nano.a(lib_a-sprintf.o)
 .debug_frame   0x00002e48       0x20 c:/program files/microchip/xc32/v2.41/bin/bin/../../lib/gcc/pic32c/6.2.1/../../../../pic32c/lib\libc_nano.a(lib_a-strcmp.o)
 .debug_frame   0x00002e68       0x2c c:/program files/microchip/xc32/v2.41/bin/bin/../../lib/gcc/pic32c/6.2.1/../../../../pic32c/lib\libc_nano.a(lib_a-strncmp.o)
 .debug_frame   0x00002e94       0x2c c:/program files/microchip/xc32/v2.41/bin/bin/../../lib/gcc/pic32c/6.2.1/../../../../pic32c/lib\libc_nano.a(lib_a-strncpy.o)
 .debug_frame   0x00002ec0       0x68 c:/program files/microchip/xc32/v2.41/bin/bin/../../lib/gcc/pic32c/6.2.1/../../../../pic32c/lib\libc_nano.a(lib_a-fflush.o)
 .debug_frame   0x00002f28       0xb0 c:/program files/microchip/xc32/v2.41/bin/bin/../../lib/gcc/pic32c/6.2.1/../../../../pic32c/lib\libc_nano.a(lib_a-findfp.o)
 .debug_frame   0x00002fd8       0x58 c:/program files/microchip/xc32/v2.41/bin/bin/../../lib/gcc/pic32c/6.2.1/../../../../pic32c/lib\libc_nano.a(lib_a-fwalk.o)
 .debug_frame   0x00003030       0x54 c:/program files/microchip/xc32/v2.41/bin/bin/../../lib/gcc/pic32c/6.2.1/../../../../pic32c/lib\libc_nano.a(lib_a-makebuf.o)
 .debug_frame   0x00003084       0x30 c:/program files/microchip/xc32/v2.41/bin/bin/../../lib/gcc/pic32c/6.2.1/../../../../pic32c/lib\libc_nano.a(lib_a-mlock.o)
 .debug_frame   0x000030b4       0x34 c:/program files/microchip/xc32/v2.41/bin/bin/../../lib/gcc/pic32c/6.2.1/../../../../pic32c/lib\libc_nano.a(lib_a-nano-svfprintf.o)
 .debug_frame   0x000030e8       0x6c c:/program files/microchip/xc32/v2.41/bin/bin/../../lib/gcc/pic32c/6.2.1/../../../../pic32c/lib\libc_nano.a(_lib_a-nano-vfprintf.cdeEfFgGnopsuxX.o)
 .debug_frame   0x00003154       0x54 c:/program files/microchip/xc32/v2.41/bin/bin/../../lib/gcc/pic32c/6.2.1/../../../../pic32c/lib\libc_nano.a(lib_a-nano-vfprintf_i.o)
 .debug_frame   0x000031a8       0x4c c:/program files/microchip/xc32/v2.41/bin/bin/../../lib/gcc/pic32c/6.2.1/../../../../pic32c/lib\libc_nano.a(lib_a-nano-vfprintf.o)
 .debug_frame   0x000031f4       0x88 c:/program files/microchip/xc32/v2.41/bin/bin/../../lib/gcc/pic32c/6.2.1/../../../../pic32c/lib\libc_nano.a(_lib_a-nano-vfscanf.s.o)
 .debug_frame   0x0000327c       0x48 c:/program files/microchip/xc32/v2.41/bin/bin/../../lib/gcc/pic32c/6.2.1/../../../../pic32c/lib\libc_nano.a(lib_a-reent.o)
 .debug_frame   0x000032c4       0x48 c:/program files/microchip/xc32/v2.41/bin/bin/../../lib/gcc/pic32c/6.2.1/../../../../pic32c/lib\libc_nano.a(lib_a-refill.o)
 .debug_frame   0x0000330c       0x2c c:/program files/microchip/xc32/v2.41/bin/bin/../../lib/gcc/pic32c/6.2.1/../../../../pic32c/lib\libc_nano.a(lib_a-sccl.o)
 .debug_frame   0x00003338       0x48 c:/program files/microchip/xc32/v2.41/bin/bin/../../lib/gcc/pic32c/6.2.1/../../../../pic32c/lib\libc_nano.a(lib_a-__ssfputs.o)
 .debug_frame   0x00003380       0x30 c:/program files/microchip/xc32/v2.41/bin/bin/../../lib/gcc/pic32c/6.2.1/../../../../pic32c/lib\libc_nano.a(lib_a-__ssputs.o)
 .debug_frame   0x000033b0       0x90 c:/program files/microchip/xc32/v2.41/bin/bin/../../lib/gcc/pic32c/6.2.1/../../../../pic32c/lib\libc_nano.a(lib_a-stdio.o)
 .debug_frame   0x00003440       0x48 c:/program files/microchip/xc32/v2.41/bin/bin/../../lib/gcc/pic32c/6.2.1/../../../../pic32c/lib\libc_nano.a(lib_a-wbuf.o)
 .debug_frame   0x00003488       0x2c c:/program files/microchip/xc32/v2.41/bin/bin/../../lib/gcc/pic32c/6.2.1/../../../../pic32c/lib\libc_nano.a(lib_a-writer.o)
 .debug_frame   0x000034b4       0x2c c:/program files/microchip/xc32/v2.41/bin/bin/../../lib/gcc/pic32c/6.2.1/../../../../pic32c/lib\libc_nano.a(lib_a-wsetup.o)
 .debug_frame   0x000034e0       0x2c c:/program files/microchip/xc32/v2.41/bin/bin/../../lib/gcc/pic32c/6.2.1/../../../../pic32c/lib\libc_nano.a(lib_a-closer.o)
 .debug_frame   0x0000350c       0x54 c:/program files/microchip/xc32/v2.41/bin/bin/../../lib/gcc/pic32c/6.2.1/../../../../pic32c/lib\libc_nano.a(lib_a-dtoa.o)
 .debug_frame   0x00003560       0x64 c:/program files/microchip/xc32/v2.41/bin/bin/../../lib/gcc/pic32c/6.2.1/../../../../pic32c/lib\libc_nano.a(lib_a-fputwc.o)
 .debug_frame   0x000035c4       0x2c c:/program files/microchip/xc32/v2.41/bin/bin/../../lib/gcc/pic32c/6.2.1/../../../../pic32c/lib\libc_nano.a(lib_a-fstatr.o)
 .debug_frame   0x000035f0       0x2c c:/program files/microchip/xc32/v2.41/bin/bin/../../lib/gcc/pic32c/6.2.1/../../../../pic32c/lib\libc_nano.a(lib_a-isattyr.o)
 .debug_frame   0x0000361c       0x40 c:/program files/microchip/xc32/v2.41/bin/bin/../../lib/gcc/pic32c/6.2.1/../../../../pic32c/lib\libc_nano.a(lib_a-localeconv.o)
 .debug_frame   0x0000365c       0x74 c:/program files/microchip/xc32/v2.41/bin/bin/../../lib/gcc/pic32c/6.2.1/../../../../pic32c/lib\libc_nano.a(lib_a-locale.o)
 .debug_frame   0x000036d0       0x2c c:/program files/microchip/xc32/v2.41/bin/bin/../../lib/gcc/pic32c/6.2.1/../../../../pic32c/lib\libc_nano.a(lib_a-lseekr.o)
 .debug_frame   0x000036fc       0x44 c:/program files/microchip/xc32/v2.41/bin/bin/../../lib/gcc/pic32c/6.2.1/../../../../pic32c/lib\libc_nano.a(lib_a-mbtowc_r.o)
 .debug_frame   0x00003740       0x20 c:/program files/microchip/xc32/v2.41/bin/bin/../../lib/gcc/pic32c/6.2.1/../../../../pic32c/lib\libc_nano.a(lib_a-memchr-stub.o)
 .debug_frame   0x00003760       0x28 c:/program files/microchip/xc32/v2.41/bin/bin/../../lib/gcc/pic32c/6.2.1/../../../../pic32c/lib\libc_nano.a(lib_a-memmove.o)
 .debug_frame   0x00003788      0x238 c:/program files/microchip/xc32/v2.41/bin/bin/../../lib/gcc/pic32c/6.2.1/../../../../pic32c/lib\libc_nano.a(lib_a-mprec.o)
 .debug_frame   0x000039c0       0x2c c:/program files/microchip/xc32/v2.41/bin/bin/../../lib/gcc/pic32c/6.2.1/../../../../pic32c/lib\libc_nano.a(lib_a-nano-callocr.o)
 .debug_frame   0x000039ec       0x30 c:/program files/microchip/xc32/v2.41/bin/bin/../../lib/gcc/pic32c/6.2.1/../../../../pic32c/lib\libc_nano.a(lib_a-nano-reallocr.o)
 .debug_frame   0x00003a1c       0x2c c:/program files/microchip/xc32/v2.41/bin/bin/../../lib/gcc/pic32c/6.2.1/../../../../pic32c/lib\libc_nano.a(lib_a-readr.o)
 .debug_frame   0x00003a48       0x4c c:/program files/microchip/xc32/v2.41/bin/bin/../../lib/gcc/pic32c/6.2.1/../../../../pic32c/lib\libc_nano.a(lib_a-wcrtomb.o)
 .debug_frame   0x00003a94       0x38 c:/program files/microchip/xc32/v2.41/bin/bin/../../lib/gcc/pic32c/6.2.1/../../../../pic32c/lib\libc_nano.a(lib_a-wctomb_r.o)
 .debug_frame   0x00003acc       0x20 c:/program files/microchip/xc32/v2.41/bin/bin/../../lib/gcc/pic32c/6.2.1/../../../../pic32c/lib\libc_nano.a(lib_a-nano-msizer.o)
 .debug_frame   0x00003aec       0x28 c:/program files/microchip/xc32/v2.41/bin/bin/../../lib/gcc/pic32c/6.2.1/../../../../pic32c/lib\libpic32c.a(_close.o)
 .debug_frame   0x00003b14       0x28 c:/program files/microchip/xc32/v2.41/bin/bin/../../lib/gcc/pic32c/6.2.1/../../../../pic32c/lib\libpic32c.a(_fstat.o)
 .debug_frame   0x00003b3c       0x28 c:/program files/microchip/xc32/v2.41/bin/bin/../../lib/gcc/pic32c/6.2.1/../../../../pic32c/lib\libpic32c.a(_isatty.o)
 .debug_frame   0x00003b64       0x28 c:/program files/microchip/xc32/v2.41/bin/bin/../../lib/gcc/pic32c/6.2.1/../../../../pic32c/lib\libpic32c.a(_lseek.o)
 .debug_frame   0x00003b8c       0x28 c:/program files/microchip/xc32/v2.41/bin/bin/../../lib/gcc/pic32c/6.2.1/../../../../pic32c/lib\libpic32c.a(_read.o)
 .debug_frame   0x00003bb4       0x20 c:/program files/microchip/xc32/v2.41/bin/bin/../../lib/gcc/pic32c/6.2.1/../../../../pic32c/lib\libpic32c.a(sbrk.o)
 .debug_frame   0x00003bd4       0x28 c:/program files/microchip/xc32/v2.41/bin/bin/../../lib/gcc/pic32c/6.2.1/../../../../pic32c/lib\libpic32c.a(_write.o)
 .debug_frame   0x00003bfc       0x20 c:/program files/microchip/xc32/v2.41/bin/bin/../../lib/gcc/pic32c/6.2.1/../../../../pic32c/lib\libpic32c.a(close.o)
 .debug_frame   0x00003c1c       0x20 c:/program files/microchip/xc32/v2.41/bin/bin/../../lib/gcc/pic32c/6.2.1/../../../../pic32c/lib\libpic32c.a(fstat.o)
 .debug_frame   0x00003c3c       0x20 c:/program files/microchip/xc32/v2.41/bin/bin/../../lib/gcc/pic32c/6.2.1/../../../../pic32c/lib\libpic32c.a(isatty.o)
 .debug_frame   0x00003c5c       0x20 c:/program files/microchip/xc32/v2.41/bin/bin/../../lib/gcc/pic32c/6.2.1/../../../../pic32c/lib\libpic32c.a(lseek.o)
 .debug_frame   0x00003c7c       0x2c c:/program files/microchip/xc32/v2.41/bin/bin/../../lib/gcc/pic32c/6.2.1/../../../../pic32c/lib\libpic32c.a(read.o)
 .debug_frame   0x00003ca8       0x2c c:/program files/microchip/xc32/v2.41/bin/bin/../../lib/gcc/pic32c/6.2.1/../../../../pic32c/lib\libpic32c.a(write.o)
 .debug_frame   0x00003cd4       0x34 c:/program files/microchip/xc32/v2.41/bin/bin/../../lib/gcc/pic32c/6.2.1\libgcc.a(adddf3.o)
 .debug_frame   0x00003d08       0x30 c:/program files/microchip/xc32/v2.41/bin/bin/../../lib/gcc/pic32c/6.2.1\libgcc.a(divdf3.o)
 .debug_frame   0x00003d38       0x30 c:/program files/microchip/xc32/v2.41/bin/bin/../../lib/gcc/pic32c/6.2.1\libgcc.a(eqdf2.o)
 .debug_frame   0x00003d68       0x34 c:/program files/microchip/xc32/v2.41/bin/bin/../../lib/gcc/pic32c/6.2.1\libgcc.a(gedf2.o)
 .debug_frame   0x00003d9c       0x30 c:/program files/microchip/xc32/v2.41/bin/bin/../../lib/gcc/pic32c/6.2.1\libgcc.a(ledf2.o)
 .debug_frame   0x00003dcc       0x30 c:/program files/microchip/xc32/v2.41/bin/bin/../../lib/gcc/pic32c/6.2.1\libgcc.a(muldf3.o)
 .debug_frame   0x00003dfc       0x34 c:/program files/microchip/xc32/v2.41/bin/bin/../../lib/gcc/pic32c/6.2.1\libgcc.a(subdf3.o)
 .debug_frame   0x00003e30       0x2c c:/program files/microchip/xc32/v2.41/bin/bin/../../lib/gcc/pic32c/6.2.1\libgcc.a(unorddf2.o)
 .debug_frame   0x00003e5c       0x2c c:/program files/microchip/xc32/v2.41/bin/bin/../../lib/gcc/pic32c/6.2.1\libgcc.a(fixdfsi.o)
 .debug_frame   0x00003e88       0x30 c:/program files/microchip/xc32/v2.41/bin/bin/../../lib/gcc/pic32c/6.2.1\libgcc.a(floatsidf.o)
 .debug_frame   0x00003eb8       0x2c c:/program files/microchip/xc32/v2.41/bin/bin/../../lib/gcc/pic32c/6.2.1\libgcc.a(floatunsidf.o)

.stack          0x200025d0      0x100
 .stack         0x200025d0      0x100 stack

.bss.gSYSFSMediaBlockBuffer%1
                0x20000a74      0x800
 .bss.gSYSFSMediaBlockBuffer
                0x20000a74      0x800 build/default/production/_ext/1269487135/sys_fs_media_manager.o
                0x20000a74                gSYSFSMediaBlockBuffer

.bss.gUSBHostDeviceList%2
                0x20001274      0x348
 .bss.gUSBHostDeviceList
                0x20001274      0x348 build/default/production/_ext/308758920/usb_host.o

.bss.gUSBHostTransferObj%3
                0x200015bc      0x280
 .bss.gUSBHostTransferObj
                0x200015bc      0x280 build/default/production/_ext/308758920/usb_host.o

.bss.FATFSVolume%4
                0x2000183c      0x23c
 .bss.FATFSVolume
                0x2000183c      0x23c build/default/production/_ext/1269487135/sys_fs_fat_interface.o

.bss.FATFSFileObject%5
                0x20001a78      0x230
 .bss.FATFSFileObject
                0x20001a78      0x230 build/default/production/_ext/1269487135/sys_fs_fat_interface.o

.bss.LfnBuf%6   0x20001ca8      0x200
 .bss.LfnBuf    0x20001ca8      0x200 build/default/production/_ext/411819097/ff.o

.data.__global_locale%7
                0x20001ea8      0x16c
 .data.__global_locale
                0x20001ea8      0x16c c:/program files/microchip/xc32/v2.41/bin/bin/../../lib/gcc/pic32c/6.2.1/../../../../pic32c/lib\libc_nano.a(lib_a-locale.o)
                0x20001ea8                __global_locale

.bss.timers%8   0x20002014       0xa0
 .bss.timers    0x20002014       0xa0 build/default/production/_ext/101884895/sys_time.o

.bss.gUSBHostPipeObj%9
                0x200020b4       0xa0
 .bss.gUSBHostPipeObj
                0x200020b4       0xa0 build/default/production/_ext/308758920/usb_host.o

.data.impure_data%10
                0x20002154       0x60
 .data.impure_data
                0x20002154       0x60 c:/program files/microchip/xc32/v2.41/bin/bin/../../lib/gcc/pic32c/6.2.1/../../../../pic32c/lib\libc_nano.a(lib_a-impure.o)

.data.gDrvUSBFSV1HostInterface%11
                0x200021b4       0x54
 .data.gDrvUSBFSV1HostInterface
                0x200021b4       0x54 build/default/production/_ext/818654064/drv_usbfsv1_host.o
                0x200021b4                gDrvUSBFSV1HostInterface

.bss.gUSBHostBusList%12
                0x20002208       0x48
 .bss.gUSBHostBusList
                0x20002208       0x48 build/default/production/_ext/308758920/usb_host.o

.bss.gSystemCounterObj%13
                0x20002250       0x38
 .bss.gSystemCounterObj
                0x20002250       0x38 build/default/production/_ext/101884895/sys_time.o

.bss.FATFSDirObject%14
                0x20002288       0x38
 .bss.FATFSDirObject
                0x20002288       0x38 build/default/production/_ext/1269487135/sys_fs_fat_interface.o

.data.gUSBHostMSDSCSIMediaFunctions%15
                0x200022c0       0x30
 .data.gUSBHostMSDSCSIMediaFunctions
                0x200022c0       0x30 build/default/production/_ext/308758920/usb_host_scsi.o
                0x200022c0                gUSBHostMSDSCSIMediaFunctions

.data.gUSBHostMSDClientDriver%16
                0x200022f0       0x2c
 .data.gUSBHostMSDClientDriver
                0x200022f0       0x2c build/default/production/_ext/308758920/usb_host_msd.o
                0x200022f0                gUSBHostMSDClientDriver

.bss%17         0x2000231c       0x1c
 .bss           0x2000231c       0x1c c:/program files/microchip/xc32/v2.41/bin/bin/../../lib/gcc/pic32c/6.2.1/crtbegin.o

.data.gSYSFSMediaManagerObj%18
                0x20002338       0x18
 .data.gSYSFSMediaManagerObj
                0x20002338       0x18 build/default/production/_ext/1269487135/sys_fs_media_manager.o
                0x20002338                gSYSFSMediaManagerObj

.bss.gUSBHostObj%19
                0x20002350       0x14
 .bss.gUSBHostObj
                0x20002350       0x14 build/default/production/_ext/308758920/usb_host.o

.data.gSYSFSVolumeName%20
                0x20002364       0x14
 .data.gSYSFSVolumeName
                0x20002364       0x14 build/default/production/_ext/1269487135/sys_fs_media_manager.o
                0x20002364                gSYSFSVolumeName

.bss.Files%21   0x20002378       0x10
 .bss.Files     0x20002378       0x10 build/default/production/_ext/411819097/ff.o

.bss.gSYSFSEventHandler%22
                0x20002388        0x8
 .bss.gSYSFSEventHandler
                0x20002388        0x8 build/default/production/_ext/1269487135/sys_fs_media_manager.o

.bss.gSysFsDiskData%23
                0x20002390        0x8
 .bss.gSysFsDiskData
                0x20002390        0x8 build/default/production/_ext/565198302/diskio.o

.bss.FatFs%24   0x20002398        0x4
 .bss.FatFs     0x20002398        0x4 build/default/production/_ext/411819097/ff.o

.data._impure_ptr%25
                0x2000239c        0x4
 .data._impure_ptr
                0x2000239c        0x4 c:/program files/microchip/xc32/v2.41/bin/bin/../../lib/gcc/pic32c/6.2.1/../../../../pic32c/lib\libc_nano.a(lib_a-impure.o)
                0x2000239c                _impure_ptr

.bss.__malloc_free_list%26
                0x200023a0        0x4
 .bss.__malloc_free_list
                0x200023a0        0x4 c:/program files/microchip/xc32/v2.41/bin/bin/../../lib/gcc/pic32c/6.2.1/../../../../pic32c/lib\libc_nano.a(lib_a-nano-mallocr.o)
                0x200023a0                __malloc_free_list

.bss.__malloc_sbrk_start%27
                0x200023a4        0x4
 .bss.__malloc_sbrk_start
                0x200023a4        0x4 c:/program files/microchip/xc32/v2.41/bin/bin/../../lib/gcc/pic32c/6.2.1/../../../../pic32c/lib\libc_nano.a(lib_a-nano-mallocr.o)
                0x200023a4                __malloc_sbrk_start

.bss%28         0x200023a8        0x4
 .bss           0x200023a8        0x4 c:/program files/microchip/xc32/v2.41/bin/bin/../../lib/gcc/pic32c/6.2.1/../../../../pic32c/lib\libpic32c.a(sbrk.o)

.data.gSysTimeTokenCount%29
                0x200023ac        0x2
 .data.gSysTimeTokenCount
                0x200023ac        0x2 build/default/production/_ext/101884895/sys_time.o

.bss.Fsid%30    0x200023ae        0x2
 .bss.Fsid      0x200023ae        0x2 build/default/production/_ext/411819097/ff.o

.bss.gNumOfFSClients%31
                0x200023b0        0x1
 .bss.gNumOfFSClients
                0x200023b0        0x1 build/default/production/_ext/1269487135/sys_fs_media_manager.o

.bss.startupflag%32
                0x200023b1        0x1
 .bss.startupflag
                0x200023b1        0x1 build/default/production/_ext/1269487135/sys_fs_fat_interface.o

.bss.CurrVol%33
                0x200023b2        0x1
 .bss.CurrVol   0x200023b2        0x1 build/default/production/_ext/411819097/ff.o

.eh_frame%z1    0x00000000        0x0
 .eh_frame      0x00000000        0x0 c:/program files/microchip/xc32/v2.41/bin/bin/../../lib/gcc/pic32c/6.2.1/crtbegin.o

.text._dtoa_r%34
                0x000000d8      0xbbc
 .text._dtoa_r  0x000000d8      0xbbc c:/program files/microchip/xc32/v2.41/bin/bin/../../lib/gcc/pic32c/6.2.1/../../../../pic32c/lib\libc_nano.a(lib_a-dtoa.o)
                0x000000d8                _dtoa_r

.text.f_mkfs%35
                0x00000c94      0x7c4
 .text.f_mkfs   0x00000c94      0x7c4 build/default/production/_ext/411819097/ff.o
                0x00000c94                f_mkfs

.text._USB_HOST_MakeDeviceReady%36
                0x00001458      0x7c0
 .text._USB_HOST_MakeDeviceReady
                0x00001458      0x7c0 build/default/production/_ext/308758920/usb_host.o
                0x00001458                _USB_HOST_MakeDeviceReady

.text%37        0x00001c18      0xb50
 .text          0x00001c18      0x5b0 c:/program files/microchip/xc32/v2.41/bin/bin/../../lib/gcc/pic32c/6.2.1\libgcc.a(subdf3.o)
                0x00001c18                __aeabi_dsub
 .text          0x000021c8      0x5a0 c:/program files/microchip/xc32/v2.41/bin/bin/../../lib/gcc/pic32c/6.2.1\libgcc.a(adddf3.o)
                0x000021c8                __aeabi_dadd

.text.__printf_float%39
                0x00002768      0x574
 .text.__printf_float
                0x00002768      0x574 c:/program files/microchip/xc32/v2.41/bin/bin/../../lib/gcc/pic32c/6.2.1/../../../../pic32c/lib\libc_nano.a(_lib_a-nano-vfprintf.cdeEfFgGnopsuxX.o)
                0x00002768                _printf_float

.text%40        0x00002cdc      0x544
 .text          0x00002cdc      0x544 c:/program files/microchip/xc32/v2.41/bin/bin/../../lib/gcc/pic32c/6.2.1\libgcc.a(divdf3.o)
                0x00002cdc                __aeabi_ddiv

.text._USB_HOST_SCSI_TasksByIndex%41
                0x00003220      0x52c
 .text._USB_HOST_SCSI_TasksByIndex
                0x00003220      0x52c build/default/production/_ext/308758920/usb_host_scsi.o
                0x00003220                _USB_HOST_SCSI_TasksByIndex

.text._DRV_USBFSV1_HOST_CreateFrameIRPList%42
                0x0000374c      0x4ec
 .text._DRV_USBFSV1_HOST_CreateFrameIRPList
                0x0000374c      0x4ec build/default/production/_ext/818654064/drv_usbfsv1_host.o
                0x0000374c                _DRV_USBFSV1_HOST_CreateFrameIRPList

.dinit%43       0x00003c38      0x4c0
 .dinit         0x00003c38      0x4c0 data_init

.text.SYS_FS_MEDIA_MANAGER_Tasks%44
                0x000040f8      0x448
 .text.SYS_FS_MEDIA_MANAGER_Tasks
                0x000040f8      0x448 build/default/production/_ext/1269487135/sys_fs_media_manager.o
                0x000040f8                SYS_FS_MEDIA_MANAGER_Tasks

.text%45        0x00004540      0x424
 .text          0x00004540      0x424 c:/program files/microchip/xc32/v2.41/bin/bin/../../lib/gcc/pic32c/6.2.1\libgcc.a(muldf3.o)
                0x00004540                __aeabi_dmul

.text._DRV_USBFSV1_HOST_ControlTransferProcess%46
                0x00004964      0x408
 .text._DRV_USBFSV1_HOST_ControlTransferProcess
                0x00004964      0x408 build/default/production/_ext/818654064/drv_usbfsv1_host.o
                0x00004964                _DRV_USBFSV1_HOST_ControlTransferProcess

.text.follow_path%47
                0x00004d6c      0x3fc
 .text.follow_path
                0x00004d6c      0x3fc build/default/production/_ext/411819097/ff.o

.text.mount_volume%48
                0x00005168      0x394
 .text.mount_volume
                0x00005168      0x394 build/default/production/_ext/411819097/ff.o

.text._USB_HOST_UpdateConfigurationState%49
                0x000054fc      0x344
 .text._USB_HOST_UpdateConfigurationState
                0x000054fc      0x344 build/default/production/_ext/308758920/usb_host.o
                0x000054fc                _USB_HOST_UpdateConfigurationState

.text.USB_HOST_MSD_TransferErrorTasks%50
                0x00005840      0x30c
 .text.USB_HOST_MSD_TransferErrorTasks
                0x00005840      0x30c build/default/production/_ext/308758920/usb_host_msd.o
                0x00005840                USB_HOST_MSD_TransferErrorTasks

.text._DRV_USBFSV1_HOST_Tasks_ISR%51
                0x00005b4c      0x306
 .text._DRV_USBFSV1_HOST_Tasks_ISR
                0x00005b4c      0x306 build/default/production/_ext/818654064/drv_usbfsv1_host.o
                0x00005b4c                _DRV_USBFSV1_HOST_Tasks_ISR

.text.f_printf%52
                0x00005e54      0x300
 .text.f_printf
                0x00005e54      0x300 build/default/production/_ext/411819097/ff.o
                0x00005e54                f_printf

.text.DRV_USBFSV1_HOST_PipeSetup%53
                0x00006154      0x2fc
 .text.DRV_USBFSV1_HOST_PipeSetup
                0x00006154      0x2fc build/default/production/_ext/818654064/drv_usbfsv1_host.o
                0x00006154                DRV_USBFSV1_HOST_PipeSetup

.text.dir_register%54
                0x00006450      0x2f8
 .text.dir_register
                0x00006450      0x2f8 build/default/production/_ext/411819097/ff.o

.text._USB_HOST_MSD_TransferTasks%55
                0x00006748      0x2d4
 .text._USB_HOST_MSD_TransferTasks
                0x00006748      0x2d4 build/default/production/_ext/308758920/usb_host_msd.o
                0x00006748                _USB_HOST_MSD_TransferTasks

.text.APP_Tasks%56
                0x00006a1c      0x2d4
 .text.APP_Tasks
                0x00006a1c      0x2d4 build/default/production/_ext/1360937237/app.o
                0x00006a1c                APP_Tasks

.rodata%57      0x00006cf0      0x2c8
 .rodata        0x00006cf0      0x2c8 build/default/production/_ext/1360937237/app.o

.text.USB_HOST_SCSI_TransferTasks%58
                0x00006fb8      0x25c
 .text.USB_HOST_SCSI_TransferTasks
                0x00006fb8      0x25c build/default/production/_ext/308758920/usb_host_scsi.o
                0x00006fb8                USB_HOST_SCSI_TransferTasks

.text.f_open%59
                0x00007214      0x254
 .text.f_open   0x00007214      0x254 build/default/production/_ext/411819097/ff.o
                0x00007214                f_open

.text.___svfscanf_r_s%60
                0x00007468      0x248
 .text.___svfscanf_r_s
                0x00007468      0x248 c:/program files/microchip/xc32/v2.41/bin/bin/../../lib/gcc/pic32c/6.2.1/../../../../pic32c/lib\libc_nano.a(_lib_a-nano-vfscanf.s.o)
                0x00007468                ___svfscanf_r_s

.text._printf_i%61
                0x000076b0      0x234
 .text._printf_i
                0x000076b0      0x234 c:/program files/microchip/xc32/v2.41/bin/bin/../../lib/gcc/pic32c/6.2.1/../../../../pic32c/lib\libc_nano.a(lib_a-nano-vfprintf_i.o)
                0x000076b0                _printf_i

.text._vfprintf_r%62
                0x000078e4      0x20c
 .text._vfprintf_r
                0x000078e4      0x20c c:/program files/microchip/xc32/v2.41/bin/bin/../../lib/gcc/pic32c/6.2.1/../../../../pic32c/lib\libc_nano.a(lib_a-nano-vfprintf.o)
                0x000078e4                _vfprintf_r
                0x000078e4                _vfiprintf_r

.rodata.cvt1.5686%63
                0x00007af0      0x1f4
 .rodata.cvt1.5686
                0x00007af0      0x1f4 build/default/production/_ext/411819097/ffunicode.o

.text.f_write%64
                0x00007ce4      0x1d8
 .text.f_write  0x00007ce4      0x1d8 build/default/production/_ext/411819097/ff.o
                0x00007ce4                f_write

.text.USB_HOST_MSD_Transfer%65
                0x00007ebc      0x1c8
 .text.USB_HOST_MSD_Transfer
                0x00007ebc      0x1c8 build/default/production/_ext/308758920/usb_host_msd.o
                0x00007ebc                USB_HOST_MSD_Transfer

.text._USB_HOST_UpdateInterfaceStatus%66
                0x00008084      0x1c8
 .text._USB_HOST_UpdateInterfaceStatus
                0x00008084      0x1c8 build/default/production/_ext/308758920/usb_host.o
                0x00008084                _USB_HOST_UpdateInterfaceStatus

.text._svfprintf_r%67
                0x0000824c      0x1c8
 .text._svfprintf_r
                0x0000824c      0x1c8 c:/program files/microchip/xc32/v2.41/bin/bin/../../lib/gcc/pic32c/6.2.1/../../../../pic32c/lib\libc_nano.a(lib_a-nano-svfprintf.o)
                0x0000824c                _svfiprintf_r
                0x0000824c                _svfprintf_r

.text._USB_HOST_UpdateDeviceOwnership%68
                0x00008414      0x1c0
 .text._USB_HOST_UpdateDeviceOwnership
                0x00008414      0x1c0 build/default/production/_ext/308758920/usb_host.o
                0x00008414                _USB_HOST_UpdateDeviceOwnership

.text.SYS_FS_MEDIA_MANAGER_SectorWrite%69
                0x000085d4      0x1b8
 .text.SYS_FS_MEDIA_MANAGER_SectorWrite
                0x000085d4      0x1b8 build/default/production/_ext/1269487135/sys_fs_media_manager.o
                0x000085d4                SYS_FS_MEDIA_MANAGER_SectorWrite

.text.USB_HOST_DeviceEnumerate%70
                0x0000878c      0x1b0
 .text.USB_HOST_DeviceEnumerate
                0x0000878c      0x1b0 build/default/production/_ext/308758920/usb_host.o
                0x0000878c                USB_HOST_DeviceEnumerate

.text._USB_HOST_SCSI_DetachDetectTasks%71
                0x0000893c      0x1ac
 .text._USB_HOST_SCSI_DetachDetectTasks
                0x0000893c      0x1ac build/default/production/_ext/308758920/usb_host_scsi.o
                0x0000893c                _USB_HOST_SCSI_DetachDetectTasks

.text._USB_HOST_DeviceControlTransferCallback%72
                0x00008ae8      0x19c
 .text._USB_HOST_DeviceControlTransferCallback
                0x00008ae8      0x19c build/default/production/_ext/308758920/usb_host.o
                0x00008ae8                _USB_HOST_DeviceControlTransferCallback

.text.dir_find%73
                0x00008c84      0x19c
 .text.dir_find
                0x00008c84      0x19c build/default/production/_ext/411819097/ff.o

.text.f_read%74
                0x00008e20      0x19c
 .text.f_read   0x00008e20      0x19c build/default/production/_ext/411819097/ff.o
                0x00008e20                f_read

.text.f_lseek%75
                0x00008fbc      0x196
 .text.f_lseek  0x00008fbc      0x196 build/default/production/_ext/411819097/ff.o
                0x00008fbc                f_lseek

.text.USB_HOST_DevicePipeOpen%76
                0x00009154      0x194
 .text.USB_HOST_DevicePipeOpen
                0x00009154      0x194 build/default/production/_ext/308758920/usb_host.o
                0x00009154                USB_HOST_DevicePipeOpen

.text.get_fileinfo%77
                0x000092e8      0x190
 .text.get_fileinfo
                0x000092e8      0x190 build/default/production/_ext/411819097/ff.o

.text.SYS_FS_Mount%78
                0x00009478      0x18c
 .text.SYS_FS_Mount
                0x00009478      0x18c build/default/production/_ext/1269487135/sys_fs.o
                0x00009478                SYS_FS_Mount

.text.create_partition%79
                0x00009604      0x188
 .text.create_partition
                0x00009604      0x188 build/default/production/_ext/411819097/ff.o

.text.USB_HOST_DevicePipeHaltClear%80
                0x0000978c      0x184
 .text.USB_HOST_DevicePipeHaltClear
                0x0000978c      0x184 build/default/production/_ext/308758920/usb_host.o
                0x0000978c                USB_HOST_DevicePipeHaltClear

.text.f_setlabel%81
                0x00009910      0x184
 .text.f_setlabel
                0x00009910      0x184 build/default/production/_ext/411819097/ff.o
                0x00009910                f_setlabel

.text._USB_HOST_MSD_InterfaceTasks%82
                0x00009a94      0x174
 .text._USB_HOST_MSD_InterfaceTasks
                0x00009a94      0x174 build/default/production/_ext/308758920/usb_host_msd.o
                0x00009a94                _USB_HOST_MSD_InterfaceTasks

.text._DRV_USBFSV1_HOST_NonControlTransferProcess%83
                0x00009c08      0x172
 .text._DRV_USBFSV1_HOST_NonControlTransferProcess
                0x00009c08      0x172 build/default/production/_ext/818654064/drv_usbfsv1_host.o

.text.dir_read%84
                0x00009d7c      0x15c
 .text.dir_read
                0x00009d7c      0x15c build/default/production/_ext/411819097/ff.o

.text.setvbuf%85
                0x00009ed8      0x158
 .text.setvbuf  0x00009ed8      0x158 c:/program files/microchip/xc32/v2.41/bin/bin/../../lib/gcc/pic32c/6.2.1/../../../../pic32c/lib\libc_nano.a(lib_a-setvbuf.o)
                0x00009ed8                setvbuf

.text.DRV_USBFSV1_Initialize%86
                0x0000a030      0x14c
 .text.DRV_USBFSV1_Initialize
                0x0000a030      0x14c build/default/production/_ext/818654064/drv_usbfsv1.o
                0x0000a030                DRV_USBFSV1_Initialize

.text.f_getcwd%87
                0x0000a17c      0x148
 .text.f_getcwd
                0x0000a17c      0x148 build/default/production/_ext/411819097/ff.o
                0x0000a17c                f_getcwd

.text.put_fat%88
                0x0000a2c4      0x144
 .text.put_fat  0x0000a2c4      0x144 build/default/production/_ext/411819097/ff.o

.text.__srefill_r%89
                0x0000a408      0x13c
 .text.__srefill_r
                0x0000a408      0x13c c:/program files/microchip/xc32/v2.41/bin/bin/../../lib/gcc/pic32c/6.2.1/../../../../pic32c/lib\libc_nano.a(lib_a-refill.o)
                0x0000a408                __srefill_r

.text.USB_HOST_DeviceDenumerate%90
                0x0000a544      0x128
 .text.USB_HOST_DeviceDenumerate
                0x0000a544      0x128 build/default/production/_ext/308758920/usb_host.o
                0x0000a544                USB_HOST_DeviceDenumerate

.text.f_rename%91
                0x0000a66c      0x124
 .text.f_rename
                0x0000a66c      0x124 build/default/production/_ext/411819097/ff.o
                0x0000a66c                f_rename

.text.USB_HOST_DeviceControlTransfer%92
                0x0000a790      0x120
 .text.USB_HOST_DeviceControlTransfer
                0x0000a790      0x120 build/default/production/_ext/308758920/usb_host.o
                0x0000a790                USB_HOST_DeviceControlTransfer

.text.USB_HOST_DeviceTransfer%93
                0x0000a8b0      0x120
 .text.USB_HOST_DeviceTransfer
                0x0000a8b0      0x120 build/default/production/_ext/308758920/usb_host.o
                0x0000a8b0                USB_HOST_DeviceTransfer

.text.SYS_FS_FileOpen%94
                0x0000a9d0      0x120
 .text.SYS_FS_FileOpen
                0x0000a9d0      0x120 build/default/production/_ext/1269487135/sys_fs.o
                0x0000a9d0                SYS_FS_FileOpen

.text.__multiply%95
                0x0000aaf0      0x11e
 .text.__multiply
                0x0000aaf0      0x11e c:/program files/microchip/xc32/v2.41/bin/bin/../../lib/gcc/pic32c/6.2.1/../../../../pic32c/lib\libc_nano.a(lib_a-mprec.o)
                0x0000aaf0                __multiply

.text.f_mkdir%96
                0x0000ac0e      0x11c
 .text.f_mkdir  0x0000ac0e      0x11c build/default/production/_ext/411819097/ff.o
                0x0000ac0e                f_mkdir

.text.DRV_USBFSV1_HOST_PipeClose%97
                0x0000ad2c      0x118
 .text.DRV_USBFSV1_HOST_PipeClose
                0x0000ad2c      0x118 build/default/production/_ext/818654064/drv_usbfsv1_host.o
                0x0000ad2c                DRV_USBFSV1_HOST_PipeClose

.text._DRV_USBFSV1_HOST_NonControlTransferDataSend%98
                0x0000ae44      0x118
 .text._DRV_USBFSV1_HOST_NonControlTransferDataSend
                0x0000ae44      0x118 build/default/production/_ext/818654064/drv_usbfsv1_host.o
                0x0000ae44                _DRV_USBFSV1_HOST_NonControlTransferDataSend

.text.__sflush_r%99
                0x0000af5c      0x114
 .text.__sflush_r
                0x0000af5c      0x114 c:/program files/microchip/xc32/v2.41/bin/bin/../../lib/gcc/pic32c/6.2.1/../../../../pic32c/lib\libc_nano.a(lib_a-fflush.o)
                0x0000af5c                __sflush_r

.text.create_chain%100
                0x0000b070      0x10a
 .text.create_chain
                0x0000b070      0x10a build/default/production/_ext/411819097/ff.o

.text.USB_HOST_Tasks%101
                0x0000b17c      0x108
 .text.USB_HOST_Tasks
                0x0000b17c      0x108 build/default/production/_ext/308758920/usb_host.o
                0x0000b17c                USB_HOST_Tasks

.text.quorem%102
                0x0000b284      0x108
 .text.quorem   0x0000b284      0x108 c:/program files/microchip/xc32/v2.41/bin/bin/../../lib/gcc/pic32c/6.2.1/../../../../pic32c/lib\libc_nano.a(lib_a-dtoa.o)

.rodata._ctype_%103
                0x0000b38c      0x101
 .rodata._ctype_
                0x0000b38c      0x101 c:/program files/microchip/xc32/v2.41/bin/bin/../../lib/gcc/pic32c/6.2.1/../../../../pic32c/lib\libc_nano.a(lib_a-ctype_.o)
                0x0000b38c                _ctype_

.rodata.uc437%104
                0x0000b490      0x100
 .rodata.uc437  0x0000b490      0x100 build/default/production/_ext/411819097/ffunicode.o

.text.USB_HOST_DeviceEndpointDescriptorQuery%105
                0x0000b590       0xfa
 .text.USB_HOST_DeviceEndpointDescriptorQuery
                0x0000b590       0xfa build/default/production/_ext/308758920/usb_host.o
                0x0000b590                USB_HOST_DeviceEndpointDescriptorQuery

.text.USB_HOST_DeviceInterfaceDescriptorQuery%106
                0x0000b68a       0xf8
 .text.USB_HOST_DeviceInterfaceDescriptorQuery
                0x0000b68a       0xf8 build/default/production/_ext/308758920/usb_host.o
                0x0000b68a                USB_HOST_DeviceInterfaceDescriptorQuery

.text.USB_HOST_DeviceGeneralInterfaceDescriptorQuery%107
                0x0000b782       0xf6
 .text.USB_HOST_DeviceGeneralInterfaceDescriptorQuery
                0x0000b782       0xf6 build/default/production/_ext/308758920/usb_host.o
                0x0000b782                USB_HOST_DeviceGeneralInterfaceDescriptorQuery

.text.SYS_FS_Unmount%108
                0x0000b878       0xf0
 .text.SYS_FS_Unmount
                0x0000b878       0xf0 build/default/production/_ext/1269487135/sys_fs.o
                0x0000b878                SYS_FS_Unmount

.text.DRV_USBFSV1_Tasks%109
                0x0000b968       0xf0
 .text.DRV_USBFSV1_Tasks
                0x0000b968       0xf0 build/default/production/_ext/818654064/drv_usbfsv1.o
                0x0000b968                DRV_USBFSV1_Tasks

.text.__swsetup_r%110
                0x0000ba58       0xec
 .text.__swsetup_r
                0x0000ba58       0xec c:/program files/microchip/xc32/v2.41/bin/bin/../../lib/gcc/pic32c/6.2.1/../../../../pic32c/lib\libc_nano.a(lib_a-wsetup.o)
                0x0000ba58                __swsetup_r

.text._USB_HOST_SCSI_Transfer%111
                0x0000bb44       0xe8
 .text._USB_HOST_SCSI_Transfer
                0x0000bb44       0xe8 build/default/production/_ext/308758920/usb_host_scsi.o
                0x0000bb44                _USB_HOST_SCSI_Transfer

.text.f_getfree%112
                0x0000bc2c       0xe8
 .text.f_getfree
                0x0000bc2c       0xe8 build/default/production/_ext/411819097/ff.o
                0x0000bc2c                f_getfree

.text%113       0x0000bd14       0xe2
 .text          0x0000bd14       0xe2 c:/program files/microchip/xc32/v2.41/bin/bin/../../lib/gcc/pic32c/6.2.1\libgcc.a(_udivmoddi4.o)
                0x0000bd14                __udivmoddi4

.text.SYS_TIME_AddToList%114
                0x0000bdf8       0xe0
 .text.SYS_TIME_AddToList
                0x0000bdf8       0xe0 build/default/production/_ext/101884895/sys_time.o

.text.SYS_TIME_PLIBCallback%115
                0x0000bed8       0xe0
 .text.SYS_TIME_PLIBCallback
                0x0000bed8       0xe0 build/default/production/_ext/101884895/sys_time.o

.text._USB_HOST_ConfigurationDescriptorParse%116
                0x0000bfb8       0xe0
 .text._USB_HOST_ConfigurationDescriptorParse
                0x0000bfb8       0xe0 build/default/production/_ext/308758920/usb_host.o
                0x0000bfb8                _USB_HOST_ConfigurationDescriptorParse

.text.get_fat%117
                0x0000c098       0xe0
 .text.get_fat  0x0000c098       0xe0 build/default/production/_ext/411819097/ff.o

.text._DRV_USBFSV1_HOST_AttachDetachStateMachine%118
                0x0000c178       0xe0
 .text._DRV_USBFSV1_HOST_AttachDetachStateMachine
                0x0000c178       0xe0 build/default/production/_ext/818654064/drv_usbfsv1_host.o
                0x0000c178                _DRV_USBFSV1_HOST_AttachDetachStateMachine

.text._printf_common%119
                0x0000c258       0xda
 .text._printf_common
                0x0000c258       0xda c:/program files/microchip/xc32/v2.41/bin/bin/../../lib/gcc/pic32c/6.2.1/../../../../pic32c/lib\libc_nano.a(lib_a-nano-vfprintf_i.o)
                0x0000c258                _printf_common

.text._USB_HOST_MSD_InterfaceAssign%120
                0x0000c334       0xd4
 .text._USB_HOST_MSD_InterfaceAssign
                0x0000c334       0xd4 build/default/production/_ext/308758920/usb_host_msd.o
                0x0000c334                _USB_HOST_MSD_InterfaceAssign

.text.SYS_FS_GetDisk%121
                0x0000c408       0xd0
 .text.SYS_FS_GetDisk
                0x0000c408       0xd0 build/default/production/_ext/1269487135/sys_fs.o

.text.dir_next%122
                0x0000c4d8       0xd0
 .text.dir_next
                0x0000c4d8       0xd0 build/default/production/_ext/411819097/ff.o

.text._USB_HOST_DeviceConfigurationDescriptorErrorCheck%123
                0x0000c5a8       0xce
 .text._USB_HOST_DeviceConfigurationDescriptorErrorCheck
                0x0000c5a8       0xce build/default/production/_ext/308758920/usb_host.o
                0x0000c5a8                _USB_HOST_DeviceConfigurationDescriptorErrorCheck

.text.f_truncate%124
                0x0000c676       0xcc
 .text.f_truncate
                0x0000c676       0xcc build/default/production/_ext/411819097/ff.o
                0x0000c676                f_truncate

.text.__swbuf_r%125
                0x0000c744       0xcc
 .text.__swbuf_r
                0x0000c744       0xcc c:/program files/microchip/xc32/v2.41/bin/bin/../../lib/gcc/pic32c/6.2.1/../../../../pic32c/lib\libc_nano.a(lib_a-wbuf.o)
                0x0000c744                __swbuf_r

.text.CLOCK_Initialize%126
                0x0000c810       0xc8
 .text.CLOCK_Initialize
                0x0000c810       0xc8 build/default/production/_ext/1984496892/plib_clock.o
                0x0000c810                CLOCK_Initialize

.text.__mdiff%127
                0x0000c8d8       0xc8
 .text.__mdiff  0x0000c8d8       0xc8 c:/program files/microchip/xc32/v2.41/bin/bin/../../lib/gcc/pic32c/6.2.1/../../../../pic32c/lib\libc_nano.a(lib_a-mprec.o)
                0x0000c8d8                __mdiff

.rodata.__mprec_tens%128
                0x0000c9a0       0xc8
 .rodata.__mprec_tens
                0x0000c9a0       0xc8 c:/program files/microchip/xc32/v2.41/bin/bin/../../lib/gcc/pic32c/6.2.1/../../../../pic32c/lib\libc_nano.a(lib_a-mprec.o)
                0x0000c9a0                __mprec_tens

.text.__ssputs_r%129
                0x0000ca68       0xc4
 .text.__ssputs_r
                0x0000ca68       0xc4 c:/program files/microchip/xc32/v2.41/bin/bin/../../lib/gcc/pic32c/6.2.1/../../../../pic32c/lib\libc_nano.a(lib_a-__ssputs.o)
                0x0000ca68                __ssputs_r

.text.SYS_TIME_TimerObjectCreate%130
                0x0000cb2c       0xc0
 .text.SYS_TIME_TimerObjectCreate
                0x0000cb2c       0xc0 build/default/production/_ext/101884895/sys_time.o

.text._DRV_USBFSV1_HOST_ControlTransferDataStageSend%131
                0x0000cbec       0xc0
 .text._DRV_USBFSV1_HOST_ControlTransferDataStageSend
                0x0000cbec       0xc0 build/default/production/_ext/818654064/drv_usbfsv1_host.o
                0x0000cbec                _DRV_USBFSV1_HOST_ControlTransferDataStageSend

.rodata.cvt2.5687%132
                0x0000ccac       0xbc
 .rodata.cvt2.5687
                0x0000ccac       0xbc build/default/production/_ext/411819097/ffunicode.o

.text.DRV_USBFSV1_HOST_IRPCancel%133
                0x0000cd68       0xbc
 .text.DRV_USBFSV1_HOST_IRPCancel
                0x0000cd68       0xbc build/default/production/_ext/818654064/drv_usbfsv1_host.o
                0x0000cd68                DRV_USBFSV1_HOST_IRPCancel

.text._malloc_r%134
                0x0000ce24       0xbc
 .text._malloc_r
                0x0000ce24       0xbc c:/program files/microchip/xc32/v2.41/bin/bin/../../lib/gcc/pic32c/6.2.1/../../../../pic32c/lib\libc_nano.a(lib_a-nano-mallocr.o)
                0x0000ce24                _malloc_r

.text.f_unlink%135
                0x0000cee0       0xba
 .text.f_unlink
                0x0000cee0       0xba build/default/production/_ext/411819097/ff.o
                0x0000cee0                f_unlink

.text.ff_wtoupper%136
                0x0000cf9c       0xb8
 .text.ff_wtoupper
                0x0000cf9c       0xb8 build/default/production/_ext/411819097/ffunicode.o
                0x0000cf9c                ff_wtoupper

.text.dir_sdi%137
                0x0000d054       0xb0
 .text.dir_sdi  0x0000d054       0xb0 build/default/production/_ext/411819097/ff.o

.rodata.gDrvUSBFSTableBW%138
                0x0000d104       0xb0
 .rodata.gDrvUSBFSTableBW
                0x0000d104       0xb0 build/default/production/_ext/818654064/drv_usbfsv1_host.o
                0x0000d104                gDrvUSBFSTableBW

.text%139       0x0000d1b4       0xb0
 .text          0x0000d1b4       0xb0 c:/program files/microchip/xc32/v2.41/bin/bin/../../lib/gcc/pic32c/6.2.1\libgcc.a(ledf2.o)
                0x0000d1b4                __ledf2
                0x0000d1b4                __ltdf2

.text.SYS_TIME_Initialize%140
                0x0000d264       0xac
 .text.SYS_TIME_Initialize
                0x0000d264       0xac build/default/production/_ext/101884895/sys_time.o
                0x0000d264                SYS_TIME_Initialize

.text%141       0x0000d310       0xa8
 .text          0x0000d310       0xa8 c:/program files/microchip/xc32/v2.41/bin/bin/../../lib/gcc/pic32c/6.2.1\libgcc.a(_divsi3.o)
                0x0000d310                __divsi3
                0x0000d310                __aeabi_idiv
                0x0000d3a4                __aeabi_idivmod

.text.__d2b%142
                0x0000d3b8       0xa8
 .text.__d2b    0x0000d3b8       0xa8 c:/program files/microchip/xc32/v2.41/bin/bin/../../lib/gcc/pic32c/6.2.1/../../../../pic32c/lib\libc_nano.a(lib_a-mprec.o)
                0x0000d3b8                __d2b

.text.SYS_TIME_HwTimerCompareUpdate%143
                0x0000d460       0xa4
 .text.SYS_TIME_HwTimerCompareUpdate
                0x0000d460       0xa4 build/default/production/_ext/101884895/sys_time.o

.text.f_getlabel%144
                0x0000d504       0xa2
 .text.f_getlabel
                0x0000d504       0xa2 build/default/production/_ext/411819097/ff.o
                0x0000d504                f_getlabel

.text.__lshift%145
                0x0000d5a6       0xa2
 .text.__lshift
                0x0000d5a6       0xa2 c:/program files/microchip/xc32/v2.41/bin/bin/../../lib/gcc/pic32c/6.2.1/../../../../pic32c/lib\libc_nano.a(lib_a-mprec.o)
                0x0000d5a6                __lshift

.text.__pow5mult%146
                0x0000d648       0xa0
 .text.__pow5mult
                0x0000d648       0xa0 c:/program files/microchip/xc32/v2.41/bin/bin/../../lib/gcc/pic32c/6.2.1/../../../../pic32c/lib\libc_nano.a(lib_a-mprec.o)
                0x0000d648                __pow5mult

.text%147       0x0000d6e8       0xa0
 .text          0x0000d6e8       0xa0 c:/program files/microchip/xc32/v2.41/bin/bin/../../lib/gcc/pic32c/6.2.1\libgcc.a(gedf2.o)
                0x0000d6e8                __gedf2
                0x0000d6e8                __gtdf2

.text.FATFS_unmount%148
                0x0000d788       0x9c
 .text.FATFS_unmount
                0x0000d788       0x9c build/default/production/_ext/1269487135/sys_fs_fat_interface.o
                0x0000d788                FATFS_unmount

.text.f_sync%149
                0x0000d824       0x98
 .text.f_sync   0x0000d824       0x98 build/default/production/_ext/411819097/ff.o
                0x0000d824                f_sync

.text.DRV_USBFSV1_HOST_IRPSubmit%150
                0x0000d8bc       0x98
 .text.DRV_USBFSV1_HOST_IRPSubmit
                0x0000d8bc       0x98 build/default/production/_ext/818654064/drv_usbfsv1_host.o
                0x0000d8bc                DRV_USBFSV1_HOST_IRPSubmit

.text._DRV_USBFSV1_HOST_Initialize%151
                0x0000d954       0x98
 .text._DRV_USBFSV1_HOST_Initialize
                0x0000d954       0x98 build/default/production/_ext/818654064/drv_usbfsv1_host.o
                0x0000d954                _DRV_USBFSV1_HOST_Initialize

.text.USB_HOST_SCSI_Deinitialize%152
                0x0000d9ec       0x94
 .text.USB_HOST_SCSI_Deinitialize
                0x0000d9ec       0x94 build/default/production/_ext/308758920/usb_host_scsi.o
                0x0000d9ec                USB_HOST_SCSI_Deinitialize

.text.sync_fs%153
                0x0000da80       0x94
 .text.sync_fs  0x0000da80       0x94 build/default/production/_ext/411819097/ff.o

.text._DRV_USBFSV1_HOST_NonControlTransferBW%154
                0x0000db14       0x94
 .text._DRV_USBFSV1_HOST_NonControlTransferBW
                0x0000db14       0x94 build/default/production/_ext/818654064/drv_usbfsv1_host.o
                0x0000db14                _DRV_USBFSV1_HOST_NonControlTransferBW

.text._free_r%155
                0x0000dba8       0x94
 .text._free_r  0x0000dba8       0x94 c:/program files/microchip/xc32/v2.41/bin/bin/../../lib/gcc/pic32c/6.2.1/../../../../pic32c/lib\libc_nano.a(lib_a-nano-freer.o)
                0x0000dba8                _free_r

.text.f_opendir%156
                0x0000dc3c       0x92
 .text.f_opendir
                0x0000dc3c       0x92 build/default/production/_ext/411819097/ff.o
                0x0000dc3c                f_opendir

.text.__pic32c_data_initialization%157
                0x0000dcd0       0x90
 .text.__pic32c_data_initialization
                0x0000dcd0       0x90 c:/program files/microchip/xc32/v2.41/bin/bin/../../lib/gcc/pic32c/6.2.1/../../../../pic32c/lib\libpic32c.a(data_init.o)
                0x0000dcd0                __pic32c_data_initialization

.text._DRV_USBFSV1_HOST_ControlTransferBW%158
                0x0000dd60       0x8e
 .text._DRV_USBFSV1_HOST_ControlTransferBW
                0x0000dd60       0x8e build/default/production/_ext/818654064/drv_usbfsv1_host.o
                0x0000dd60                _DRV_USBFSV1_HOST_ControlTransferBW

.text._USB_HOST_FindClassSubClassProtocolDriver%159
                0x0000ddf0       0x8c
 .text._USB_HOST_FindClassSubClassProtocolDriver
                0x0000ddf0       0x8c build/default/production/_ext/308758920/usb_host.o
                0x0000ddf0                _USB_HOST_FindClassSubClassProtocolDriver

.text%160       0x0000de7c       0x8c
 .text          0x0000de7c       0x8c c:/program files/microchip/xc32/v2.41/bin/bin/../../lib/gcc/pic32c/6.2.1\libgcc.a(_udivsi3.o)
                0x0000de7c                __aeabi_uidiv
                0x0000de7c                __udivsi3
                0x0000def4                __aeabi_uidivmod

.text._USB_HOST_MSD_InstanceRelease%161
                0x0000df08       0x88
 .text._USB_HOST_MSD_InstanceRelease
                0x0000df08       0x88 build/default/production/_ext/308758920/usb_host_msd.o
                0x0000df08                _USB_HOST_MSD_InstanceRelease

.rodata.FatFsFunctions%162
                0x0000df90       0x88
 .rodata.FatFsFunctions
                0x0000df90       0x88 build/default/production/_ext/1171490990/initialization.o
                0x0000df90                FatFsFunctions

.text.DRV_USBFSV1_Tasks_ISR%163
                0x0000e018       0x88
 .text.DRV_USBFSV1_Tasks_ISR
                0x0000e018       0x88 build/default/production/_ext/818654064/drv_usbfsv1.o
                0x0000e018                DRV_USBFSV1_Tasks_ISR

.text.remove_chain%164
                0x0000e0a0       0x86
 .text.remove_chain
                0x0000e0a0       0x86 build/default/production/_ext/411819097/ff.o

.text.SYS_Initialize%165
                0x0000e128       0x80
 .text.SYS_Initialize
                0x0000e128       0x80 build/default/production/_ext/1171490990/initialization.o
                0x0000e128                SYS_Initialize

.rodata.ExCvt%166
                0x0000e1a8       0x80
 .rodata.ExCvt  0x0000e1a8       0x80 build/default/production/_ext/411819097/ff.o

.text.__sfp%167
                0x0000e228       0x80
 .text.__sfp    0x0000e228       0x80 c:/program files/microchip/xc32/v2.41/bin/bin/../../lib/gcc/pic32c/6.2.1/../../../../pic32c/lib\libc_nano.a(lib_a-findfp.o)
                0x0000e228                __sfp

.text.USB_HOST_Initialize%168
                0x0000e2a8       0x7c
 .text.USB_HOST_Initialize
                0x0000e2a8       0x7c build/default/production/_ext/308758920/usb_host.o
                0x0000e2a8                USB_HOST_Initialize

.text.SYS_FS_FileWrite%169
                0x0000e324       0x7c
 .text.SYS_FS_FileWrite
                0x0000e324       0x7c build/default/production/_ext/1269487135/sys_fs.o
                0x0000e324                SYS_FS_FileWrite

.text.check_fs%170
                0x0000e3a0       0x7c
 .text.check_fs
                0x0000e3a0       0x7c build/default/production/_ext/411819097/ff.o

.text.DRV_USBFSV1_HOST_ROOT_HUB_OperationEnable%171
                0x0000e41c       0x7c
 .text.DRV_USBFSV1_HOST_ROOT_HUB_OperationEnable
                0x0000e41c       0x7c build/default/production/_ext/818654064/drv_usbfsv1_host.o
                0x0000e41c                DRV_USBFSV1_HOST_ROOT_HUB_OperationEnable

.text.__smakebuf_r%172
                0x0000e498       0x7c
 .text.__smakebuf_r
                0x0000e498       0x7c c:/program files/microchip/xc32/v2.41/bin/bin/../../lib/gcc/pic32c/6.2.1/../../../../pic32c/lib\libc_nano.a(lib_a-makebuf.o)
                0x0000e498                __smakebuf_r

.text.__fputwc%173
                0x0000e514       0x7c
 .text.__fputwc
                0x0000e514       0x7c c:/program files/microchip/xc32/v2.41/bin/bin/../../lib/gcc/pic32c/6.2.1/../../../../pic32c/lib\libc_nano.a(lib_a-fputwc.o)
                0x0000e514                __fputwc

.text%174       0x0000e590       0x7c
 .text          0x0000e590       0x7c c:/program files/microchip/xc32/v2.41/bin/bin/../../lib/gcc/pic32c/6.2.1\libgcc.a(_arm_cmpdf2.o)
                0x0000e590                __aeabi_cdrcmple
                0x0000e5a0                __aeabi_cdcmple
                0x0000e5a0                __aeabi_cdcmpeq
                0x0000e5b0                __aeabi_dcmpeq
                0x0000e5bc                __aeabi_dcmplt
                0x0000e5d0                __aeabi_dcmple
                0x0000e5e4                __aeabi_dcmpgt
                0x0000e5f8                __aeabi_dcmpge

.text.SYS_FS_FileClose%175
                0x0000e60c       0x78
 .text.SYS_FS_FileClose
                0x0000e60c       0x78 build/default/production/_ext/1269487135/sys_fs.o
                0x0000e60c                SYS_FS_FileClose

.text.SYS_FS_FileRead%176
                0x0000e684       0x78
 .text.SYS_FS_FileRead
                0x0000e684       0x78 build/default/production/_ext/1269487135/sys_fs.o
                0x0000e684                SYS_FS_FileRead

.text.__multadd%177
                0x0000e6fc       0x78
 .text.__multadd
                0x0000e6fc       0x78 c:/program files/microchip/xc32/v2.41/bin/bin/../../lib/gcc/pic32c/6.2.1/../../../../pic32c/lib\libc_nano.a(lib_a-mprec.o)
                0x0000e6fc                __multadd

.text.FATFS_mount%178
                0x0000e774       0x74
 .text.FATFS_mount
                0x0000e774       0x74 build/default/production/_ext/1269487135/sys_fs_fat_interface.o
                0x0000e774                FATFS_mount

.text.inc_lock%179
                0x0000e7e8       0x74
 .text.inc_lock
                0x0000e7e8       0x74 build/default/production/_ext/411819097/ff.o

.text%180       0x0000e85c       0x74
 .text          0x0000e85c       0x74 c:/program files/microchip/xc32/v2.41/bin/bin/../../lib/gcc/pic32c/6.2.1\libgcc.a(floatsidf.o)
                0x0000e85c                __aeabi_i2d

.text.SYS_FS_FileSize%181
                0x0000e8d0       0x70
 .text.SYS_FS_FileSize
                0x0000e8d0       0x70 build/default/production/_ext/1269487135/sys_fs.o
                0x0000e8d0                SYS_FS_FileSize

.text._Balloc%182
                0x0000e940       0x70
 .text._Balloc  0x0000e940       0x70 c:/program files/microchip/xc32/v2.41/bin/bin/../../lib/gcc/pic32c/6.2.1/../../../../pic32c/lib\libc_nano.a(lib_a-mprec.o)
                0x0000e940                _Balloc

.text%183       0x0000e9b0       0x70
 .text          0x0000e9b0       0x70 c:/program files/microchip/xc32/v2.41/bin/bin/../../lib/gcc/pic32c/6.2.1\libgcc.a(eqdf2.o)
                0x0000e9b0                __nedf2
                0x0000e9b0                __eqdf2

.text._USB_HOST_SCSI_BlockTransferCallback%184
                0x0000ea20       0x6c
 .text._USB_HOST_SCSI_BlockTransferCallback
                0x0000ea20       0x6c build/default/production/_ext/308758920/usb_host_scsi.o
                0x0000ea20                _USB_HOST_SCSI_BlockTransferCallback

.text.USB_HOST_DeviceInterfaceRelease%185
                0x0000ea8c       0x6c
 .text.USB_HOST_DeviceInterfaceRelease
                0x0000ea8c       0x6c build/default/production/_ext/308758920/usb_host.o
                0x0000ea8c                USB_HOST_DeviceInterfaceRelease

.text.f_mount%186
                0x0000eaf8       0x6c
 .text.f_mount  0x0000eaf8       0x6c build/default/production/_ext/411819097/ff.o
                0x0000eaf8                f_mount

.text.APP_SYSFSEventHandler%187
                0x0000eb64       0x68
 .text.APP_SYSFSEventHandler
                0x0000eb64       0x68 build/default/production/_ext/1360937237/app.o
                0x0000eb64                APP_SYSFSEventHandler

.text.__sinit%188
                0x0000ebcc       0x68
 .text.__sinit  0x0000ebcc       0x68 c:/program files/microchip/xc32/v2.41/bin/bin/../../lib/gcc/pic32c/6.2.1/../../../../pic32c/lib\libc_nano.a(lib_a-findfp.o)
                0x0000ebcc                __sinit

.text%189       0x0000ec34       0x68
 .text          0x0000ec34       0x68 c:/program files/microchip/xc32/v2.41/bin/bin/../../lib/gcc/pic32c/6.2.1\libgcc.a(fixdfsi.o)
                0x0000ec34                __aeabi_d2iz

.text.SYS_FS_MEDIA_MANAGER_SectorRead%190
                0x0000ec9c       0x64
 .text.SYS_FS_MEDIA_MANAGER_SectorRead
                0x0000ec9c       0x64 build/default/production/_ext/1269487135/sys_fs_media_manager.o
                0x0000ec9c                SYS_FS_MEDIA_MANAGER_SectorRead

.text%191       0x0000ed00       0x64
 .text          0x0000ed00       0x64 c:/program files/microchip/xc32/v2.41/bin/bin/../../lib/gcc/pic32c/6.2.1\libgcc.a(floatunsidf.o)
                0x0000ed00                __aeabi_ui2d

.text.__sccl%192
                0x0000ed64       0x62
 .text.__sccl   0x0000ed64       0x62 c:/program files/microchip/xc32/v2.41/bin/bin/../../lib/gcc/pic32c/6.2.1/../../../../pic32c/lib\libc_nano.a(lib_a-sccl.o)
                0x0000ed64                __sccl

.text.SYS_TIME_TimerStart%193
                0x0000edc8       0x60
 .text.SYS_TIME_TimerStart
                0x0000edc8       0x60 build/default/production/_ext/101884895/sys_time.o
                0x0000edc8                SYS_TIME_TimerStart

.text.SYS_FS_MEDIA_MANAGER_MediaStatusGet%194
                0x0000ee28       0x60
 .text.SYS_FS_MEDIA_MANAGER_MediaStatusGet
                0x0000ee28       0x60 build/default/production/_ext/1269487135/sys_fs_media_manager.o
                0x0000ee28                SYS_FS_MEDIA_MANAGER_MediaStatusGet

.text.FATFS_open%195
                0x0000ee88       0x60
 .text.FATFS_open
                0x0000ee88       0x60 build/default/production/_ext/1269487135/sys_fs_fat_interface.o
                0x0000ee88                FATFS_open

.text.f_chdir%196
                0x0000eee8       0x5e
 .text.f_chdir  0x0000eee8       0x5e build/default/production/_ext/411819097/ff.o
                0x0000eee8                f_chdir

.text.__lo0bits%197
                0x0000ef46       0x5e
 .text.__lo0bits
                0x0000ef46       0x5e c:/program files/microchip/xc32/v2.41/bin/bin/../../lib/gcc/pic32c/6.2.1/../../../../pic32c/lib\libc_nano.a(lib_a-mprec.o)
                0x0000ef46                __lo0bits

.text.SYS_FS_Initialize%198
                0x0000efa4       0x5c
 .text.SYS_FS_Initialize
                0x0000efa4       0x5c build/default/production/_ext/1269487135/sys_fs.o
                0x0000efa4                SYS_FS_Initialize

.text.chk_lock%199
                0x0000f000       0x5c
 .text.chk_lock
                0x0000f000       0x5c build/default/production/_ext/411819097/ff.o

.text.dir_clear%200
                0x0000f05c       0x5c
 .text.dir_clear
                0x0000f05c       0x5c build/default/production/_ext/411819097/ff.o

.rodata.f_printf%201
                0x0000f0b8       0x5c
 .rodata.f_printf
                0x0000f0b8       0x5c build/default/production/_ext/411819097/ff.o

.text.f_chmod%202
                0x0000f114       0x5a
 .text.f_chmod  0x0000f114       0x5a build/default/production/_ext/411819097/ff.o
                0x0000f114                f_chmod

.text.f_gets%203
                0x0000f16e       0x5a
 .text.f_gets   0x0000f16e       0x5a build/default/production/_ext/411819097/ff.o
                0x0000f16e                f_gets

.text.Reset_Handler%204
                0x0000f1c8       0x58
 .text.Reset_Handler
                0x0000f1c8       0x58 build/default/production/_ext/1171490990/startup_xc32.o
                0x0000f1c8                Reset_Handler

.text.SYS_TIME_RemoveFromList%205
                0x0000f220       0x58
 .text.SYS_TIME_RemoveFromList
                0x0000f220       0x58 build/default/production/_ext/101884895/sys_time.o

.text.SYS_TIME_CallbackRegisterMS%206
                0x0000f278       0x58
 .text.SYS_TIME_CallbackRegisterMS
                0x0000f278       0x58 build/default/production/_ext/101884895/sys_time.o
                0x0000f278                SYS_TIME_CallbackRegisterMS

.text._SYS_FS_MEDIA_MANAGER_HandleMediaDetach%207
                0x0000f2d0       0x58
 .text._SYS_FS_MEDIA_MANAGER_HandleMediaDetach
                0x0000f2d0       0x58 build/default/production/_ext/1269487135/sys_fs_media_manager.o

.text.get_ldnumber%208
                0x0000f328       0x58
 .text.get_ldnumber
                0x0000f328       0x58 build/default/production/_ext/411819097/ff.o

.text.f_utime%209
                0x0000f380       0x58
 .text.f_utime  0x0000f380       0x58 build/default/production/_ext/411819097/ff.o
                0x0000f380                f_utime

.text._fflush_r%210
                0x0000f3d8       0x58
 .text._fflush_r
                0x0000f3d8       0x58 c:/program files/microchip/xc32/v2.41/bin/bin/../../lib/gcc/pic32c/6.2.1/../../../../pic32c/lib\libc_nano.a(lib_a-fflush.o)
                0x0000f3d8                _fflush_r

.text._vfscanf_s%211
                0x0000f430       0x58
 .text._vfscanf_s
                0x0000f430       0x58 c:/program files/microchip/xc32/v2.41/bin/bin/../../lib/gcc/pic32c/6.2.1/../../../../pic32c/lib\libc_nano.a(_lib_a-nano-vfscanf.s.o)
                0x0000f430                _vfscanf_s

.text.SYS_TIME_DelayMS%212
                0x0000f488       0x54
 .text.SYS_TIME_DelayMS
                0x0000f488       0x54 build/default/production/_ext/101884895/sys_time.o
                0x0000f488                SYS_TIME_DelayMS

.text.dir_remove%213
                0x0000f4dc       0x54
 .text.dir_remove
                0x0000f4dc       0x54 build/default/production/_ext/411819097/ff.o

.rodata%214     0x0000f530       0x54
 .rodata        0x0000f530       0x54 build/default/production/_ext/411819097/ff.o

.text.__swhatbuf_r%215
                0x0000f584       0x50
 .text.__swhatbuf_r
                0x0000f584       0x50 c:/program files/microchip/xc32/v2.41/bin/bin/../../lib/gcc/pic32c/6.2.1/../../../../pic32c/lib\libc_nano.a(lib_a-makebuf.o)
                0x0000f584                __swhatbuf_r

.text.sync_window%216
                0x0000f5d4       0x4c
 .text.sync_window
                0x0000f5d4       0x4c build/default/production/_ext/411819097/ff.o

.text.dir_alloc%217
                0x0000f620       0x4c
 .text.dir_alloc
                0x0000f620       0x4c build/default/production/_ext/411819097/ff.o

.text.APP_USBHostEventHandler%218
                0x0000f66c       0x4c
 .text.APP_USBHostEventHandler
                0x0000f66c       0x4c build/default/production/_ext/1360937237/app.o
                0x0000f66c                APP_USBHostEventHandler

.text._realloc_r%219
                0x0000f6b8       0x4c
 .text._realloc_r
                0x0000f6b8       0x4c c:/program files/microchip/xc32/v2.41/bin/bin/../../lib/gcc/pic32c/6.2.1/../../../../pic32c/lib\libc_nano.a(lib_a-nano-reallocr.o)
                0x0000f6b8                _realloc_r

.text._wcrtomb_r%220
                0x0000f704       0x4c
 .text._wcrtomb_r
                0x0000f704       0x4c c:/program files/microchip/xc32/v2.41/bin/bin/../../lib/gcc/pic32c/6.2.1/../../../../pic32c/lib\libc_nano.a(lib_a-wcrtomb.o)
                0x0000f704                _wcrtomb_r

.text.USB_HOST_DeviceIADQuery%221
                0x0000f750       0x4a
 .text.USB_HOST_DeviceIADQuery
                0x0000f750       0x4a build/default/production/_ext/308758920/usb_host.o
                0x0000f750                USB_HOST_DeviceIADQuery

.text.f_readdir%222
                0x0000f79a       0x4a
 .text.f_readdir
                0x0000f79a       0x4a build/default/production/_ext/411819097/ff.o
                0x0000f79a                f_readdir

.text%223       0x0000f7e4       0x48
 .text          0x0000f7e4       0x48 c:/program files/microchip/xc32/v2.41/bin/bin/../../lib/gcc/pic32c/6.2.1/crtbegin.o

.text.USB_HOST_DevicePipeClose%224
                0x0000f82c       0x48
 .text.USB_HOST_DevicePipeClose
                0x0000f82c       0x48 build/default/production/_ext/308758920/usb_host.o
                0x0000f82c                USB_HOST_DevicePipeClose

.text._USB_HOST_UpdateDeviceTask%225
                0x0000f874       0x48
 .text._USB_HOST_UpdateDeviceTask
                0x0000f874       0x48 build/default/production/_ext/308758920/usb_host.o
                0x0000f874                _USB_HOST_UpdateDeviceTask

.text.ff_uni2oem%226
                0x0000f8bc       0x48
 .text.ff_uni2oem
                0x0000f8bc       0x48 build/default/production/_ext/411819097/ffunicode.o
                0x0000f8bc                ff_uni2oem

.text.DRV_USBFSV1_HOST_ROOT_HUB_PortReset%227
                0x0000f904       0x48
 .text.DRV_USBFSV1_HOST_ROOT_HUB_PortReset
                0x0000f904       0x48 build/default/production/_ext/818654064/drv_usbfsv1_host.o
                0x0000f904                DRV_USBFSV1_HOST_ROOT_HUB_PortReset

.text.__libc_init_array%228
                0x0000f94c       0x48
 .text.__libc_init_array
                0x0000f94c       0x48 c:/program files/microchip/xc32/v2.41/bin/bin/../../lib/gcc/pic32c/6.2.1/../../../../pic32c/lib\libc_nano.a(lib_a-init.o)
                0x0000f94c                __libc_init_array

.text.sprintf%229
                0x0000f994       0x48
 .text.sprintf  0x0000f994       0x48 c:/program files/microchip/xc32/v2.41/bin/bin/../../lib/gcc/pic32c/6.2.1/../../../../pic32c/lib\libc_nano.a(lib_a-sprintf.o)
                0x0000f994                __sprintf_s
                0x0000f994                sprintf
                0x0000f994                siprintf
                0x0000f994                __sprintf_di

.text.std.isra.0%230
                0x0000f9dc       0x48
 .text.std.isra.0
                0x0000f9dc       0x48 c:/program files/microchip/xc32/v2.41/bin/bin/../../lib/gcc/pic32c/6.2.1/../../../../pic32c/lib\libc_nano.a(lib_a-findfp.o)

.text.__ssfputs_r%231
                0x0000fa24       0x48
 .text.__ssfputs_r
                0x0000fa24       0x48 c:/program files/microchip/xc32/v2.41/bin/bin/../../lib/gcc/pic32c/6.2.1/../../../../pic32c/lib\libc_nano.a(lib_a-__ssfputs.o)
                0x0000fa24                __ssfputs_r

.rodata%232     0x0000fa6c       0x45
 .rodata        0x0000fa6c       0x45 c:/program files/microchip/xc32/v2.41/bin/bin/../../lib/gcc/pic32c/6.2.1/../../../../pic32c/lib\libc_nano.a(_lib_a-nano-vfprintf.cdeEfFgGnopsuxX.o)

.text.SYS_TIME_TimerAdd%233
                0x0000fab4       0x44
 .text.SYS_TIME_TimerAdd
                0x0000fab4       0x44 build/default/production/_ext/101884895/sys_time.o

.text._USB_HOST_FreeAddress%234
                0x0000faf8       0x44
 .text._USB_HOST_FreeAddress
                0x0000faf8       0x44 build/default/production/_ext/308758920/usb_host.o
                0x0000faf8                _USB_HOST_FreeAddress

.text.f_stat%235
                0x0000fb3c       0x44
 .text.f_stat   0x0000fb3c       0x44 build/default/production/_ext/411819097/ff.o
                0x0000fb3c                f_stat

.text.disk_ioctl%236
                0x0000fb80       0x44
 .text.disk_ioctl
                0x0000fb80       0x44 build/default/production/_ext/565198302/diskio.o
                0x0000fb80                disk_ioctl

.text%237       0x0000fbc4       0x42
 .text          0x0000fbc4       0x42 c:/program files/microchip/xc32/v2.41/bin/bin/../../lib/gcc/pic32c/6.2.1\libgcc.a(_muldi3.o)
                0x0000fbc4                __muldi3
                0x0000fbc4                __aeabi_lmul

.text._fwalk_reent%238
                0x0000fc06       0x42
 .text._fwalk_reent
                0x0000fc06       0x42 c:/program files/microchip/xc32/v2.41/bin/bin/../../lib/gcc/pic32c/6.2.1/../../../../pic32c/lib\libc_nano.a(lib_a-fwalk.o)
                0x0000fc06                _fwalk_reent

.text.PORT_Initialize%239
                0x0000fc48       0x40
 .text.PORT_Initialize
                0x0000fc48       0x40 build/default/production/_ext/1865521619/plib_port.o
                0x0000fc48                PORT_Initialize

.text.NVIC_Initialize%240
                0x0000fc88       0x40
 .text.NVIC_Initialize
                0x0000fc88       0x40 build/default/production/_ext/1865468468/plib_nvic.o
                0x0000fc88                NVIC_Initialize

.text.SERCOM5_USART_Read%241
                0x0000fcc8       0x40
 .text.SERCOM5_USART_Read
                0x0000fcc8       0x40 build/default/production/_ext/504274921/plib_sercom5_usart.o
                0x0000fcc8                SERCOM5_USART_Read

.text.TC3_TimerInitialize%242
                0x0000fd08       0x40
 .text.TC3_TimerInitialize
                0x0000fd08       0x40 build/default/production/_ext/829342655/plib_tc3.o
                0x0000fd08                TC3_TimerInitialize

.text.SYS_TIME_GetTimerObject%243
                0x0000fd48       0x40
 .text.SYS_TIME_GetTimerObject
                0x0000fd48       0x40 build/default/production/_ext/101884895/sys_time.o

.text._USB_HOST_ReleaseInterfaceDrivers%244
                0x0000fd88       0x40
 .text._USB_HOST_ReleaseInterfaceDrivers
                0x0000fd88       0x40 build/default/production/_ext/308758920/usb_host.o
                0x0000fd88                _USB_HOST_ReleaseInterfaceDrivers

.rodata._USB_HOST_MakeDeviceReady%245
                0x0000fdc8       0x40
 .rodata._USB_HOST_MakeDeviceReady
                0x0000fdc8       0x40 build/default/production/_ext/308758920/usb_host.o

.text._USB_HOST_DataTransferIRPCallback%246
                0x0000fe08       0x40
 .text._USB_HOST_DataTransferIRPCallback
                0x0000fe08       0x40 build/default/production/_ext/308758920/usb_host.o
                0x0000fe08                _USB_HOST_DataTransferIRPCallback

.rodata.SYS_FS_MEDIA_MANAGER_IsFSFat%247
                0x0000fe48       0x40
 .rodata.SYS_FS_MEDIA_MANAGER_IsFSFat
                0x0000fe48       0x40 build/default/production/_ext/1269487135/sys_fs_media_manager.o

.text.SYS_FS_MEDIA_MANAGER_Register%248
                0x0000fe88       0x40
 .text.SYS_FS_MEDIA_MANAGER_Register
                0x0000fe88       0x40 build/default/production/_ext/1269487135/sys_fs_media_manager.o
                0x0000fe88                SYS_FS_MEDIA_MANAGER_Register

.text.SYS_FS_MEDIA_MANAGER_VolumePropertyGet%249
                0x0000fec8       0x40
 .text.SYS_FS_MEDIA_MANAGER_VolumePropertyGet
                0x0000fec8       0x40 build/default/production/_ext/1269487135/sys_fs_media_manager.o
                0x0000fec8                SYS_FS_MEDIA_MANAGER_VolumePropertyGet

.text.dec_lock%250
                0x0000ff08       0x40
 .text.dec_lock
                0x0000ff08       0x40 build/default/production/_ext/411819097/ff.o

.text%251       0x0000ff48       0x40
 .text          0x0000ff48       0x40 c:/program files/microchip/xc32/v2.41/bin/bin/../../lib/gcc/pic32c/6.2.1\libgcc.a(_aeabi_uldivmod.o)
                0x0000ff48                __aeabi_uldivmod

.text.write%252
                0x0000ff88       0x40
 .text.write    0x0000ff88       0x40 c:/program files/microchip/xc32/v2.41/bin/bin/../../lib/gcc/pic32c/6.2.1/../../../../pic32c/lib\libpic32c.a(write.o)
                0x0000ff88                write

.text.SYS_TIME_TimerDestroy%253
                0x0000ffc8       0x3e
 .text.SYS_TIME_TimerDestroy
                0x0000ffc8       0x3e build/default/production/_ext/101884895/sys_time.o
                0x0000ffc8                SYS_TIME_TimerDestroy

.rodata._USB_HOST_SCSI_TasksByIndex%254
                0x00010008       0x3c
 .rodata._USB_HOST_SCSI_TasksByIndex
                0x00010008       0x3c build/default/production/_ext/308758920/usb_host_scsi.o

.text._USB_HOST_NoInterfacesOwned%255
                0x00010044       0x3c
 .text._USB_HOST_NoInterfacesOwned
                0x00010044       0x3c build/default/production/_ext/308758920/usb_host.o
                0x00010044                _USB_HOST_NoInterfacesOwned

.text.USB_HOST_BusEnable%256
                0x00010080       0x3c
 .text.USB_HOST_BusEnable
                0x00010080       0x3c build/default/production/_ext/308758920/usb_host.o
                0x00010080                USB_HOST_BusEnable

.text.FATFS_getclusters%257
                0x000100bc       0x3c
 .text.FATFS_getclusters
                0x000100bc       0x3c build/default/production/_ext/1269487135/sys_fs_fat_interface.o
                0x000100bc                FATFS_getclusters

.text.putc_bfd%258
                0x000100f8       0x3c
 .text.putc_bfd
                0x000100f8       0x3c build/default/production/_ext/411819097/ff.o

.text.putc_flush%259
                0x00010134       0x3c
 .text.putc_flush
                0x00010134       0x3c build/default/production/_ext/411819097/ff.o

.text.SYS_INT_SourceDisable%260
                0x00010170       0x3c
 .text.SYS_INT_SourceDisable
                0x00010170       0x3c build/default/production/_ext/1881668453/sys_int.o
                0x00010170                SYS_INT_SourceDisable

.text%261       0x000101ac       0x3c
 .text          0x000101ac       0x3c c:/program files/microchip/xc32/v2.41/bin/bin/../../lib/gcc/pic32c/6.2.1\libgcc.a(_clzsi2.o)
                0x000101ac                __clzsi2

.text.USB_HOST_SCSI_Initialize%262
                0x000101e8       0x38
 .text.USB_HOST_SCSI_Initialize
                0x000101e8       0x38 build/default/production/_ext/308758920/usb_host_scsi.o
                0x000101e8                USB_HOST_SCSI_Initialize

.text.SERCOM5_USART_Initialize%263
                0x00010220       0x38
 .text.SERCOM5_USART_Initialize
                0x00010220       0x38 build/default/production/_ext/504274921/plib_sercom5_usart.o
                0x00010220                SERCOM5_USART_Initialize

.text.SYS_TIME_UpdateTimerList%264
                0x00010258       0x38
 .text.SYS_TIME_UpdateTimerList
                0x00010258       0x38 build/default/production/_ext/101884895/sys_time.o

.text.USB_HOST_DeviceControlPipeOpen%265
                0x00010290       0x38
 .text.USB_HOST_DeviceControlPipeOpen
                0x00010290       0x38 build/default/production/_ext/308758920/usb_host.o
                0x00010290                USB_HOST_DeviceControlPipeOpen

.text.SYS_FS_MEDIA_MANAGER_EventHandler%266
                0x000102c8       0x38
 .text.SYS_FS_MEDIA_MANAGER_EventHandler
                0x000102c8       0x38 build/default/production/_ext/1269487135/sys_fs_media_manager.o
                0x000102c8                SYS_FS_MEDIA_MANAGER_EventHandler

.text.disk_checkCommandStatus%267
                0x00010300       0x38
 .text.disk_checkCommandStatus
                0x00010300       0x38 build/default/production/_ext/565198302/diskio.o

.rodata.APP_Tasks%268
                0x00010338       0x38
 .rodata.APP_Tasks
                0x00010338       0x38 build/default/production/_ext/1360937237/app.o

.text._fwalk%269
                0x00010370       0x38
 .text._fwalk   0x00010370       0x38 c:/program files/microchip/xc32/v2.41/bin/bin/../../lib/gcc/pic32c/6.2.1/../../../../pic32c/lib\libc_nano.a(lib_a-fwalk.o)
                0x00010370                _fwalk

.text.__swrite%270
                0x000103a8       0x38
 .text.__swrite
                0x000103a8       0x38 c:/program files/microchip/xc32/v2.41/bin/bin/../../lib/gcc/pic32c/6.2.1/../../../../pic32c/lib\libc_nano.a(lib_a-stdio.o)
                0x000103a8                __swrite

.text.validate%271
                0x000103e0       0x36
 .text.validate
                0x000103e0       0x36 build/default/production/_ext/411819097/ff.o

.text.move_window%272
                0x00010416       0x36
 .text.move_window
                0x00010416       0x36 build/default/production/_ext/411819097/ff.o

.text._USB_HOST_MSD_InterfaceEventHandler%273
                0x0001044c       0x34
 .text._USB_HOST_MSD_InterfaceEventHandler
                0x0001044c       0x34 build/default/production/_ext/308758920/usb_host_msd.o
                0x0001044c                _USB_HOST_MSD_InterfaceEventHandler

.rodata.USB_HOST_MSD_TransferErrorTasks%274
                0x00010480       0x34
 .rodata.USB_HOST_MSD_TransferErrorTasks
                0x00010480       0x34 build/default/production/_ext/308758920/usb_host_msd.o

.text.SERCOM5_USART_Write%275
                0x000104b4       0x34
 .text.SERCOM5_USART_Write
                0x000104b4       0x34 build/default/production/_ext/504274921/plib_sercom5_usart.o
                0x000104b4                SERCOM5_USART_Write

.text.SYS_TIME_ResourceLock%276
                0x000104e8       0x34
 .text.SYS_TIME_ResourceLock
                0x000104e8       0x34 build/default/production/_ext/101884895/sys_time.o

.text.USB_HOST_BusIsEnabled%277
                0x0001051c       0x34
 .text.USB_HOST_BusIsEnabled
                0x0001051c       0x34 build/default/production/_ext/308758920/usb_host.o
                0x0001051c                USB_HOST_BusIsEnabled

.text.printf%278
                0x00010550       0x34
 .text.printf   0x00010550       0x34 c:/program files/microchip/xc32/v2.41/bin/bin/../../lib/gcc/pic32c/6.2.1/../../../../pic32c/lib\libc_nano.a(lib_a-printf.o)
                0x00010550                __printf_di
                0x00010550                __printf_s
                0x00010550                iprintf
                0x00010550                printf

.text.__hi0bits%279
                0x00010584       0x34
 .text.__hi0bits
                0x00010584       0x34 c:/program files/microchip/xc32/v2.41/bin/bin/../../lib/gcc/pic32c/6.2.1/../../../../pic32c/lib\libc_nano.a(lib_a-mprec.o)
                0x00010584                __hi0bits

.text%280       0x000105b8       0x34
 .text          0x000105b8       0x34 c:/program files/microchip/xc32/v2.41/bin/bin/../../lib/gcc/pic32c/6.2.1\libgcc.a(unorddf2.o)
                0x000105b8                __aeabi_dcmpun

.text.f_fdisk%281
                0x000105ec       0x32
 .text.f_fdisk  0x000105ec       0x32 build/default/production/_ext/411819097/ff.o
                0x000105ec                f_fdisk

.text.f_puts%282
                0x0001061e       0x32
 .text.f_puts   0x0001061e       0x32 build/default/production/_ext/411819097/ff.o
                0x0001061e                f_puts

.text._Bfree%283
                0x00010650       0x32
 .text._Bfree   0x00010650       0x32 c:/program files/microchip/xc32/v2.41/bin/bin/../../lib/gcc/pic32c/6.2.1/../../../../pic32c/lib\libc_nano.a(lib_a-mprec.o)
                0x00010650                _Bfree

.text.__mcmp%284
                0x00010682       0x32
 .text.__mcmp   0x00010682       0x32 c:/program files/microchip/xc32/v2.41/bin/bin/../../lib/gcc/pic32c/6.2.1/../../../../pic32c/lib\libc_nano.a(lib_a-mprec.o)
                0x00010682                __mcmp

.text.USB_HOST_SCSI_Open%285
                0x000106b4       0x30
 .text.USB_HOST_SCSI_Open
                0x000106b4       0x30 build/default/production/_ext/308758920/usb_host_scsi.o
                0x000106b4                USB_HOST_SCSI_Open

.text.SERCOM5_USART_ErrorGet%286
                0x000106e4       0x30
 .text.SERCOM5_USART_ErrorGet
                0x000106e4       0x30 build/default/production/_ext/504274921/plib_sercom5_usart.o
                0x000106e4                SERCOM5_USART_ErrorGet

.text.SYS_TIME_ResourceUnlock%287
                0x00010714       0x30
 .text.SYS_TIME_ResourceUnlock
                0x00010714       0x30 build/default/production/_ext/101884895/sys_time.o

.text._USB_HOST_IRPResultToHostResult%288
                0x00010744       0x30
 .text._USB_HOST_IRPResultToHostResult
                0x00010744       0x30 build/default/production/_ext/308758920/usb_host.o
                0x00010744                _USB_HOST_IRPResultToHostResult

.text.FATFS_opendir%289
                0x00010774       0x30
 .text.FATFS_opendir
                0x00010774       0x30 build/default/production/_ext/1269487135/sys_fs_fat_interface.o
                0x00010774                FATFS_opendir

.text.ff_oem2uni%290
                0x000107a4       0x30
 .text.ff_oem2uni
                0x000107a4       0x30 build/default/production/_ext/411819097/ffunicode.o
                0x000107a4                ff_oem2uni

.text.disk_write%291
                0x000107d4       0x30
 .text.disk_write
                0x000107d4       0x30 build/default/production/_ext/565198302/diskio.o
                0x000107d4                disk_write

.text.DRV_USBFSV1_HOST_EventsEnable%292
                0x00010804       0x30
 .text.DRV_USBFSV1_HOST_EventsEnable
                0x00010804       0x30 build/default/production/_ext/818654064/drv_usbfsv1_host.o
                0x00010804                DRV_USBFSV1_HOST_EventsEnable

.text._DRV_USBFSV1_HOST_PipeGroupGetNextIRP%293
                0x00010834       0x30
 .text._DRV_USBFSV1_HOST_PipeGroupGetNextIRP
                0x00010834       0x30 build/default/production/_ext/818654064/drv_usbfsv1_host.o
                0x00010834                _DRV_USBFSV1_HOST_PipeGroupGetNextIRP

.text._sbrk%294
                0x00010864       0x30
 .text._sbrk    0x00010864       0x30 c:/program files/microchip/xc32/v2.41/bin/bin/../../lib/gcc/pic32c/6.2.1/../../../../pic32c/lib\libpic32c.a(sbrk.o)
                0x00010864                _sbrk

.text._USB_HOST_FindEndOfDescriptor%295
                0x00010894       0x2e
 .text._USB_HOST_FindEndOfDescriptor
                0x00010894       0x2e build/default/production/_ext/308758920/usb_host.o
                0x00010894                _USB_HOST_FindEndOfDescriptor

.text.f_close%296
                0x000108c2       0x2e
 .text.f_close  0x000108c2       0x2e build/default/production/_ext/411819097/ff.o
                0x000108c2                f_close

.text.f_closedir%297
                0x000108f0       0x2c
 .text.f_closedir
                0x000108f0       0x2c build/default/production/_ext/411819097/ff.o
                0x000108f0                f_closedir

.text.DRV_USBFSV1_Open%298
                0x0001091c       0x2c
 .text.DRV_USBFSV1_Open
                0x0001091c       0x2c build/default/production/_ext/818654064/drv_usbfsv1.o
                0x0001091c                DRV_USBFSV1_Open

.text.__sfmoreglue%299
                0x00010948       0x2c
 .text.__sfmoreglue
                0x00010948       0x2c c:/program files/microchip/xc32/v2.41/bin/bin/../../lib/gcc/pic32c/6.2.1/../../../../pic32c/lib\libc_nano.a(lib_a-findfp.o)
                0x00010948                __sfmoreglue

.text.__sseek%300
                0x00010974       0x2c
 .text.__sseek  0x00010974       0x2c c:/program files/microchip/xc32/v2.41/bin/bin/../../lib/gcc/pic32c/6.2.1/../../../../pic32c/lib\libc_nano.a(lib_a-stdio.o)
                0x00010974                __sseek

.text.read%301  0x000109a0       0x2c
 .text.read     0x000109a0       0x2c c:/program files/microchip/xc32/v2.41/bin/bin/../../lib/gcc/pic32c/6.2.1/../../../../pic32c/lib\libpic32c.a(read.o)
                0x000109a0                read

.text.SYS_TIME_TimerPeriodHasExpired%302
                0x000109cc       0x2a
 .text.SYS_TIME_TimerPeriodHasExpired
                0x000109cc       0x2a build/default/production/_ext/101884895/sys_time.o
                0x000109cc                SYS_TIME_TimerPeriodHasExpired

.text.strncpy%303
                0x000109f6       0x2a
 .text.strncpy  0x000109f6       0x2a c:/program files/microchip/xc32/v2.41/bin/bin/../../lib/gcc/pic32c/6.2.1/../../../../pic32c/lib\libc_nano.a(lib_a-strncpy.o)
                0x000109f6                strncpy

.text.__sfputc_r%304
                0x00010a20       0x2a
 .text.__sfputc_r
                0x00010a20       0x2a c:/program files/microchip/xc32/v2.41/bin/bin/../../lib/gcc/pic32c/6.2.1/../../../../pic32c/lib\libc_nano.a(lib_a-__ssfputs.o)

.text._USB_HOST_MSD_Initialize%305
                0x00010a4c       0x28
 .text._USB_HOST_MSD_Initialize
                0x00010a4c       0x28 build/default/production/_ext/308758920/usb_host_msd.o
                0x00010a4c                _USB_HOST_MSD_Initialize

.text.disk_read%306
                0x00010a74       0x28
 .text.disk_read
                0x00010a74       0x28 build/default/production/_ext/565198302/diskio.o
                0x00010a74                disk_read

.text.DRV_USBFSV1_HOST_ROOT_HUB_Initialize%307
                0x00010a9c       0x28
 .text.DRV_USBFSV1_HOST_ROOT_HUB_Initialize
                0x00010a9c       0x28 build/default/production/_ext/818654064/drv_usbfsv1_host.o
                0x00010a9c                DRV_USBFSV1_HOST_ROOT_HUB_Initialize

.text.fflush%308
                0x00010ac4       0x28
 .text.fflush   0x00010ac4       0x28 c:/program files/microchip/xc32/v2.41/bin/bin/../../lib/gcc/pic32c/6.2.1/../../../../pic32c/lib\libc_nano.a(lib_a-fflush.o)
                0x00010ac4                fflush

.text.__sread%309
                0x00010aec       0x28
 .text.__sread  0x00010aec       0x28 c:/program files/microchip/xc32/v2.41/bin/bin/../../lib/gcc/pic32c/6.2.1/../../../../pic32c/lib\libc_nano.a(lib_a-stdio.o)
                0x00010aec                __sread

.text._write_r%310
                0x00010b14       0x28
 .text._write_r
                0x00010b14       0x28 c:/program files/microchip/xc32/v2.41/bin/bin/../../lib/gcc/pic32c/6.2.1/../../../../pic32c/lib\libc_nano.a(lib_a-writer.o)
                0x00010b14                _write_r

.text._lseek_r%311
                0x00010b3c       0x28
 .text._lseek_r
                0x00010b3c       0x28 c:/program files/microchip/xc32/v2.41/bin/bin/../../lib/gcc/pic32c/6.2.1/../../../../pic32c/lib\libc_nano.a(lib_a-lseekr.o)
                0x00010b3c                _lseek_r

.rodata.__mprec_bigtens%312
                0x00010b68       0x28
 .rodata.__mprec_bigtens
                0x00010b68       0x28 c:/program files/microchip/xc32/v2.41/bin/bin/../../lib/gcc/pic32c/6.2.1/../../../../pic32c/lib\libc_nano.a(lib_a-mprec.o)
                0x00010b68                __mprec_bigtens

.text._read_r%313
                0x00010b90       0x28
 .text._read_r  0x00010b90       0x28 c:/program files/microchip/xc32/v2.41/bin/bin/../../lib/gcc/pic32c/6.2.1/../../../../pic32c/lib\libc_nano.a(lib_a-readr.o)
                0x00010b90                _read_r

.text.FATFS_mkfs%314
                0x00010bb8       0x26
 .text.FATFS_mkfs
                0x00010bb8       0x26 build/default/production/_ext/1269487135/sys_fs_fat_interface.o
                0x00010bb8                FATFS_mkfs

.text.f_putc%315
                0x00010bde       0x26
 .text.f_putc   0x00010bde       0x26 build/default/production/_ext/411819097/ff.o
                0x00010bde                f_putc

.text.USB_HOST_SCSI_MediaGeometryGet%316
                0x00010c04       0x24
 .text.USB_HOST_SCSI_MediaGeometryGet
                0x00010c04       0x24 build/default/production/_ext/308758920/usb_host_scsi.o
                0x00010c04                USB_HOST_SCSI_MediaGeometryGet

.rodata.drvUSBInit%317
                0x00010c28       0x24
 .rodata.drvUSBInit
                0x00010c28       0x24 build/default/production/_ext/1171490990/initialization.o
                0x00010c28                drvUSBInit

.text.TC3_TimerInterruptHandler%318
                0x00010c4c       0x24
 .text.TC3_TimerInterruptHandler
                0x00010c4c       0x24 build/default/production/_ext/829342655/plib_tc3.o
                0x00010c4c                TC3_TimerInterruptHandler

.text.SYS_TIME_GetElapsedCount%319
                0x00010c70       0x24
 .text.SYS_TIME_GetElapsedCount
                0x00010c70       0x24 build/default/production/_ext/101884895/sys_time.o

.text.SYS_FS_MEDIA_MANAGER_EventHandlerSet%320
                0x00010c94       0x24
 .text.SYS_FS_MEDIA_MANAGER_EventHandlerSet
                0x00010c94       0x24 build/default/production/_ext/1269487135/sys_fs_media_manager.o
                0x00010c94                SYS_FS_MEDIA_MANAGER_EventHandlerSet

.text.SYS_FS_MEDIA_MANAGER_TransferTask%321
                0x00010cb8       0x24
 .text.SYS_FS_MEDIA_MANAGER_TransferTask
                0x00010cb8       0x24 build/default/production/_ext/1269487135/sys_fs_media_manager.o
                0x00010cb8                SYS_FS_MEDIA_MANAGER_TransferTask

.text.tchar2uni%322
                0x00010cdc       0x24
 .text.tchar2uni
                0x00010cdc       0x24 build/default/production/_ext/411819097/ff.o

.text.f_chdrive%323
                0x00010d00       0x24
 .text.f_chdrive
                0x00010d00       0x24 build/default/production/_ext/411819097/ff.o
                0x00010d00                f_chdrive

.rodata.ff_wtoupper%324
                0x00010d24       0x24
 .rodata.ff_wtoupper
                0x00010d24       0x24 build/default/production/_ext/411819097/ffunicode.o

.text.diskEventHandler%325
                0x00010d48       0x24
 .text.diskEventHandler
                0x00010d48       0x24 build/default/production/_ext/565198302/diskio.o
                0x00010d48                diskEventHandler

.text.APP_Initialize%326
                0x00010d6c       0x24
 .text.APP_Initialize
                0x00010d6c       0x24 build/default/production/_ext/1360937237/app.o
                0x00010d6c                APP_Initialize

.text._sbrk_r%327
                0x00010d90       0x24
 .text._sbrk_r  0x00010d90       0x24 c:/program files/microchip/xc32/v2.41/bin/bin/../../lib/gcc/pic32c/6.2.1/../../../../pic32c/lib\libc_nano.a(lib_a-sbrkr.o)
                0x00010d90                _sbrk_r

.text._close_r%328
                0x00010db4       0x24
 .text._close_r
                0x00010db4       0x24 c:/program files/microchip/xc32/v2.41/bin/bin/../../lib/gcc/pic32c/6.2.1/../../../../pic32c/lib\libc_nano.a(lib_a-closer.o)
                0x00010db4                _close_r

.text._fstat_r%329
                0x00010dd8       0x24
 .text._fstat_r
                0x00010dd8       0x24 c:/program files/microchip/xc32/v2.41/bin/bin/../../lib/gcc/pic32c/6.2.1/../../../../pic32c/lib\libc_nano.a(lib_a-fstatr.o)
                0x00010dd8                _fstat_r

.text._isatty_r%330
                0x00010dfc       0x24
 .text._isatty_r
                0x00010dfc       0x24 c:/program files/microchip/xc32/v2.41/bin/bin/../../lib/gcc/pic32c/6.2.1/../../../../pic32c/lib\libc_nano.a(lib_a-isattyr.o)
                0x00010dfc                _isatty_r

.text.__ascii_mbtowc%331
                0x00010e20       0x24
 .text.__ascii_mbtowc
                0x00010e20       0x24 c:/program files/microchip/xc32/v2.41/bin/bin/../../lib/gcc/pic32c/6.2.1/../../../../pic32c/lib\libc_nano.a(lib_a-mbtowc_r.o)
                0x00010e20                __ascii_mbtowc

.text.memmove%332
                0x00010e44       0x24
 .text.memmove  0x00010e44       0x24 c:/program files/microchip/xc32/v2.41/bin/bin/../../lib/gcc/pic32c/6.2.1/../../../../pic32c/lib\libc_nano.a(lib_a-memmove.o)
                0x00010e44                memmove

.text.USB_HOST_SCSI_MediaStatusGet%333
                0x00010e68       0x22
 .text.USB_HOST_SCSI_MediaStatusGet
                0x00010e68       0x22 build/default/production/_ext/308758920/usb_host_scsi.o
                0x00010e68                USB_HOST_SCSI_MediaStatusGet

.text.ld_clust%334
                0x00010e8a       0x22
 .text.ld_clust
                0x00010e8a       0x22 build/default/production/_ext/411819097/ff.o

.text.strncmp%335
                0x00010eac       0x22
 .text.strncmp  0x00010eac       0x22 c:/program files/microchip/xc32/v2.41/bin/bin/../../lib/gcc/pic32c/6.2.1/../../../../pic32c/lib\libc_nano.a(lib_a-strncmp.o)
                0x00010eac                strncmp

.rodata%336     0x00010ece       0x22
 .rodata        0x00010ece       0x22 c:/program files/microchip/xc32/v2.41/bin/bin/../../lib/gcc/pic32c/6.2.1/../../../../pic32c/lib\libc_nano.a(lib_a-nano-vfprintf_i.o)

.text._USB_HOST_MSD_InterfaceHandleToMSDInstance%337
                0x00010ef0       0x20
 .text._USB_HOST_MSD_InterfaceHandleToMSDInstance
                0x00010ef0       0x20 build/default/production/_ext/308758920/usb_host_msd.o
                0x00010ef0                _USB_HOST_MSD_InterfaceHandleToMSDInstance

.text._USB_HOST_SCSI_LUNHandleToSCSIInstance%338
                0x00010f10       0x20
 .text._USB_HOST_SCSI_LUNHandleToSCSIInstance
                0x00010f10       0x20 build/default/production/_ext/308758920/usb_host_scsi.o
                0x00010f10                _USB_HOST_SCSI_LUNHandleToSCSIInstance

.rodata.USB_HOST_SCSI_TransferTasks%339
                0x00010f30       0x20
 .rodata.USB_HOST_SCSI_TransferTasks
                0x00010f30       0x20 build/default/production/_ext/308758920/usb_host_scsi.o

.text.TC3_Timer16bitCounterGet%340
                0x00010f50       0x20
 .text.TC3_Timer16bitCounterGet
                0x00010f50       0x20 build/default/production/_ext/829342655/plib_tc3.o
                0x00010f50                TC3_Timer16bitCounterGet

.rodata._USB_HOST_UpdateConfigurationState%341
                0x00010f70       0x20
 .rodata._USB_HOST_UpdateConfigurationState
                0x00010f70       0x20 build/default/production/_ext/308758920/usb_host.o

.text.SYS_FS_MEDIA_MANAGER_GetMediaGeometry%342
                0x00010f90       0x20
 .text.SYS_FS_MEDIA_MANAGER_GetMediaGeometry
                0x00010f90       0x20 build/default/production/_ext/1269487135/sys_fs_media_manager.o
                0x00010f90                SYS_FS_MEDIA_MANAGER_GetMediaGeometry

.rodata%343     0x00010fb0       0x20
 .rodata        0x00010fb0       0x20 build/default/production/_ext/1269487135/sys_fs_media_manager.o

.text.DRV_USBFSV1_HOST_ROOT_HUB_PortResetIsComplete%344
                0x00010fd0       0x20
 .text.DRV_USBFSV1_HOST_ROOT_HUB_PortResetIsComplete
                0x00010fd0       0x20 build/default/production/_ext/818654064/drv_usbfsv1_host.o
                0x00010fd0                DRV_USBFSV1_HOST_ROOT_HUB_PortResetIsComplete

.text.DRV_USBFSV1_HOST_EventsDisable%345
                0x00010ff0       0x20
 .text.DRV_USBFSV1_HOST_EventsDisable
                0x00010ff0       0x20 build/default/production/_ext/818654064/drv_usbfsv1_host.o
                0x00010ff0                DRV_USBFSV1_HOST_EventsDisable

.rodata.gDrvUSBLSTableBW%346
                0x00011010       0x20
 .rodata.gDrvUSBLSTableBW
                0x00011010       0x20 build/default/production/_ext/818654064/drv_usbfsv1_host.o
                0x00011010                gDrvUSBLSTableBW

.text.SYS_Tasks%347
                0x00011030       0x20
 .text.SYS_Tasks
                0x00011030       0x20 build/default/production/_ext/1171490990/tasks.o
                0x00011030                SYS_Tasks

.text._scanf_s%348
                0x00011050       0x20
 .text._scanf_s
                0x00011050       0x20 c:/program files/microchip/xc32/v2.41/bin/bin/../../lib/gcc/pic32c/6.2.1/../../../../pic32c/lib\libc_nano.a(_lib_a-scanf.s.o)
                0x00011050                __scanf_s
                0x00011050                _scanf_s

.rodata.__sf_fake_stderr%349
                0x00011070       0x20
 .rodata.__sf_fake_stderr
                0x00011070       0x20 c:/program files/microchip/xc32/v2.41/bin/bin/../../lib/gcc/pic32c/6.2.1/../../../../pic32c/lib\libc_nano.a(lib_a-findfp.o)
                0x00011070                __sf_fake_stderr

.rodata.__sf_fake_stdin%350
                0x00011090       0x20
 .rodata.__sf_fake_stdin
                0x00011090       0x20 c:/program files/microchip/xc32/v2.41/bin/bin/../../lib/gcc/pic32c/6.2.1/../../../../pic32c/lib\libc_nano.a(lib_a-findfp.o)
                0x00011090                __sf_fake_stdin

.rodata.__sf_fake_stdout%351
                0x000110b0       0x20
 .rodata.__sf_fake_stdout
                0x000110b0       0x20 c:/program files/microchip/xc32/v2.41/bin/bin/../../lib/gcc/pic32c/6.2.1/../../../../pic32c/lib\libc_nano.a(lib_a-findfp.o)
                0x000110b0                __sf_fake_stdout

.text.FATFS_close%352
                0x000110d0       0x1e
 .text.FATFS_close
                0x000110d0       0x1e build/default/production/_ext/1269487135/sys_fs_fat_interface.o
                0x000110d0                FATFS_close

.text.FATFS_readdir%353
                0x000110ee       0x1e
 .text.FATFS_readdir
                0x000110ee       0x1e build/default/production/_ext/1269487135/sys_fs_fat_interface.o
                0x000110ee                FATFS_readdir

.text.FATFS_closedir%354
                0x0001110c       0x1e
 .text.FATFS_closedir
                0x0001110c       0x1e build/default/production/_ext/1269487135/sys_fs_fat_interface.o
                0x0001110c                FATFS_closedir

.text._fputwc_r%355
                0x0001112a       0x1e
 .text._fputwc_r
                0x0001112a       0x1e c:/program files/microchip/xc32/v2.41/bin/bin/../../lib/gcc/pic32c/6.2.1/../../../../pic32c/lib\libc_nano.a(lib_a-fputwc.o)
                0x0001112a                _fputwc_r

.text._USB_HOST_MSD_HostResultToMSDResultMap%356
                0x00011148       0x1c
 .text._USB_HOST_MSD_HostResultToMSDResultMap
                0x00011148       0x1c build/default/production/_ext/308758920/usb_host_msd.o
                0x00011148                _USB_HOST_MSD_HostResultToMSDResultMap

.rodata%357     0x00011164       0x1c
 .rodata        0x00011164       0x1c build/default/production/_ext/1171490990/initialization.o

.rodata.sysTimePlibAPI%358
                0x00011180       0x1c
 .rodata.sysTimePlibAPI
                0x00011180       0x1c build/default/production/_ext/1171490990/initialization.o
                0x00011180                sysTimePlibAPI

.text.SYS_TIME_Counter64Update%359
                0x0001119c       0x1c
 .text.SYS_TIME_Counter64Update
                0x0001119c       0x1c build/default/production/_ext/101884895/sys_time.o

.text.FATFS_stat%360
                0x000111b8       0x1c
 .text.FATFS_stat
                0x000111b8       0x1c build/default/production/_ext/1269487135/sys_fs_fat_interface.o
                0x000111b8                FATFS_stat

.text.FATFS_chdrive%361
                0x000111d4       0x1c
 .text.FATFS_chdrive
                0x000111d4       0x1c build/default/production/_ext/1269487135/sys_fs_fat_interface.o
                0x000111d4                FATFS_chdrive

.text.sum_sfn%362
                0x000111f0       0x1c
 .text.sum_sfn  0x000111f0       0x1c build/default/production/_ext/411819097/ff.o

.text.DRV_USBFSV1_HOST_ROOT_HUB_MaximumCurrentGet%363
                0x0001120c       0x1c
 .text.DRV_USBFSV1_HOST_ROOT_HUB_MaximumCurrentGet
                0x0001120c       0x1c build/default/production/_ext/818654064/drv_usbfsv1_host.o
                0x0001120c                DRV_USBFSV1_HOST_ROOT_HUB_MaximumCurrentGet

.rodata._DRV_USBFSV1_HOST_ControlTransferProcess%364
                0x00011228       0x1c
 .rodata._DRV_USBFSV1_HOST_ControlTransferProcess
                0x00011228       0x1c build/default/production/_ext/818654064/drv_usbfsv1_host.o

.text.__locale_mb_cur_max%365
                0x00011244       0x1c
 .text.__locale_mb_cur_max
                0x00011244       0x1c c:/program files/microchip/xc32/v2.41/bin/bin/../../lib/gcc/pic32c/6.2.1/../../../../pic32c/lib\libc_nano.a(lib_a-locale.o)
                0x00011244                __locale_mb_cur_max

.text.__locale_ctype_ptr%366
                0x00011260       0x1c
 .text.__locale_ctype_ptr
                0x00011260       0x1c c:/program files/microchip/xc32/v2.41/bin/bin/../../lib/gcc/pic32c/6.2.1/../../../../pic32c/lib\libc_nano.a(lib_a-locale.o)
                0x00011260                __locale_ctype_ptr

.text._calloc_r%367
                0x0001127c       0x1c
 .text._calloc_r
                0x0001127c       0x1c c:/program files/microchip/xc32/v2.41/bin/bin/../../lib/gcc/pic32c/6.2.1/../../../../pic32c/lib\libc_nano.a(lib_a-nano-callocr.o)
                0x0001127c                _calloc_r

.text._USB_HOST_SCSI_TimerCallback%368
                0x00011298       0x1a
 .text._USB_HOST_SCSI_TimerCallback
                0x00011298       0x1a build/default/production/_ext/308758920/usb_host_scsi.o
                0x00011298                _USB_HOST_SCSI_TimerCallback

.text._USB_HOST_SCSI_ReadCapacityCommand%369
                0x000112b2       0x1a
 .text._USB_HOST_SCSI_ReadCapacityCommand
                0x000112b2       0x1a build/default/production/_ext/308758920/usb_host_scsi.o
                0x000112b2                _USB_HOST_SCSI_ReadCapacityCommand

.text._mon_getc%370
                0x000112cc       0x1a
 .text._mon_getc
                0x000112cc       0x1a build/default/production/_ext/163028504/xc32_monitor.o
                0x000112cc                _mon_getc

.text._mon_putc%371
                0x000112e6       0x1a
 .text._mon_putc
                0x000112e6       0x1a build/default/production/_ext/163028504/xc32_monitor.o
                0x000112e6                _mon_putc

.text.mem_cmp%372
                0x00011300       0x1a
 .text.mem_cmp  0x00011300       0x1a build/default/production/_ext/411819097/ff.o

.text.DRV_USBFSV1_HOST_ROOT_HUB_BusSpeedGet%373
                0x0001131a       0x1a
 .text.DRV_USBFSV1_HOST_ROOT_HUB_BusSpeedGet
                0x0001131a       0x1a build/default/production/_ext/818654064/drv_usbfsv1_host.o
                0x0001131a                DRV_USBFSV1_HOST_ROOT_HUB_BusSpeedGet

.text.DRV_USBFSV1_HOST_ROOT_HUB_PortSpeedGet%374
                0x00011334       0x1a
 .text.DRV_USBFSV1_HOST_ROOT_HUB_PortSpeedGet
                0x00011334       0x1a build/default/production/_ext/818654064/drv_usbfsv1_host.o
                0x00011334                DRV_USBFSV1_HOST_ROOT_HUB_PortSpeedGet

.text.USB_HOST_SCSI_SectorRead%375
                0x0001134e       0x18
 .text.USB_HOST_SCSI_SectorRead
                0x0001134e       0x18 build/default/production/_ext/308758920/usb_host_scsi.o
                0x0001134e                USB_HOST_SCSI_SectorRead

.text.USB_HOST_SCSI_SectorWrite%376
                0x00011366       0x18
 .text.USB_HOST_SCSI_SectorWrite
                0x00011366       0x18 build/default/production/_ext/308758920/usb_host_scsi.o
                0x00011366                USB_HOST_SCSI_SectorWrite

.text._USB_HOST_SCSI_ModeSense%377
                0x0001137e       0x18
 .text._USB_HOST_SCSI_ModeSense
                0x0001137e       0x18 build/default/production/_ext/308758920/usb_host_scsi.o
                0x0001137e                _USB_HOST_SCSI_ModeSense

.text.TC3_TimerStart%378
                0x00011398       0x18
 .text.TC3_TimerStart
                0x00011398       0x18 build/default/production/_ext/829342655/plib_tc3.o
                0x00011398                TC3_TimerStart

.text.TC3_TimerStop%379
                0x000113b0       0x18
 .text.TC3_TimerStop
                0x000113b0       0x18 build/default/production/_ext/829342655/plib_tc3.o
                0x000113b0                TC3_TimerStop

.text.SYS_TIME_DelayIsComplete%380
                0x000113c8       0x18
 .text.SYS_TIME_DelayIsComplete
                0x000113c8       0x18 build/default/production/_ext/101884895/sys_time.o
                0x000113c8                SYS_TIME_DelayIsComplete

.text._USB_HOST_TimerCallback%381
                0x000113e0       0x18
 .text._USB_HOST_TimerCallback
                0x000113e0       0x18 build/default/production/_ext/308758920/usb_host.o
                0x000113e0                _USB_HOST_TimerCallback

.text._USB_HOST_RootHubEventDisable%382
                0x000113f8       0x18
 .text._USB_HOST_RootHubEventDisable
                0x000113f8       0x18 build/default/production/_ext/308758920/usb_host.o
                0x000113f8                _USB_HOST_RootHubEventDisable

.text._USB_HOST_RootHubEventEnable%383
                0x00011410       0x18
 .text._USB_HOST_RootHubEventEnable
                0x00011410       0x18 build/default/production/_ext/308758920/usb_host.o
                0x00011410                _USB_HOST_RootHubEventEnable

.text._USB_HOST_GetNewAddress%384
                0x00011428       0x18
 .text._USB_HOST_GetNewAddress
                0x00011428       0x18 build/default/production/_ext/308758920/usb_host.o
                0x00011428                _USB_HOST_GetNewAddress

.text.SYS_FS_MEDIA_MANAGER_IsFSFat%385
                0x00011440       0x18
 .text.SYS_FS_MEDIA_MANAGER_IsFSFat
                0x00011440       0x18 build/default/production/_ext/1269487135/sys_fs_media_manager.o

.rodata.FATFS_open%386
                0x00011458       0x18
 .rodata.FATFS_open
                0x00011458       0x18 build/default/production/_ext/1269487135/sys_fs_fat_interface.o

.text.clst2sect%387
                0x00011470       0x18
 .text.clst2sect
                0x00011470       0x18 build/default/production/_ext/411819097/ff.o

.text.st_clust%388
                0x00011488       0x18
 .text.st_clust
                0x00011488       0x18 build/default/production/_ext/411819097/ff.o

.text%389       0x000114a0       0x48
 .text          0x000114a0       0x18 c:/program files/microchip/xc32/v2.41/bin/bin/../../lib/gcc/pic32c/6.2.1\libgcc.a(_lshrdi3.o)
                0x000114a0                __lshrdi3
                0x000114a0                __aeabi_llsr
 .text          0x000114b8       0x18 c:/program files/microchip/xc32/v2.41/bin/bin/../../lib/gcc/pic32c/6.2.1\libgcc.a(_ashldi3.o)
                0x000114b8                __aeabi_llsl
                0x000114b8                __ashldi3
 .text          0x000114d0       0x18 c:/program files/microchip/xc32/v2.41/bin/bin/../../lib/gcc/pic32c/6.2.1\libgcc.a(_clzdi2.o)
                0x000114d0                __clzdi2

.text.lflush%392
                0x000114e8       0x18
 .text.lflush   0x000114e8       0x18 c:/program files/microchip/xc32/v2.41/bin/bin/../../lib/gcc/pic32c/6.2.1/../../../../pic32c/lib\libc_nano.a(lib_a-refill.o)

.text._localeconv_r%393
                0x00011500       0x18
 .text._localeconv_r
                0x00011500       0x18 c:/program files/microchip/xc32/v2.41/bin/bin/../../lib/gcc/pic32c/6.2.1/../../../../pic32c/lib\libc_nano.a(lib_a-localeconv.o)
                0x00011500                _localeconv_r

.text.__ascii_wctomb%394
                0x00011518       0x18
 .text.__ascii_wctomb
                0x00011518       0x18 c:/program files/microchip/xc32/v2.41/bin/bin/../../lib/gcc/pic32c/6.2.1/../../../../pic32c/lib\libc_nano.a(lib_a-wctomb_r.o)
                0x00011518                __ascii_wctomb

.text.USB_HOST_SCSI_EventHandlerSet%395
                0x00011530       0x16
 .text.USB_HOST_SCSI_EventHandlerSet
                0x00011530       0x16 build/default/production/_ext/308758920/usb_host_scsi.o
                0x00011530                USB_HOST_SCSI_EventHandlerSet

.text.ld_dword%396
                0x00011546       0x16
 .text.ld_dword
                0x00011546       0x16 build/default/production/_ext/411819097/ff.o

.text.DRV_USBFSV1_Close%397
                0x0001155c       0x16
 .text.DRV_USBFSV1_Close
                0x0001155c       0x16 build/default/production/_ext/818654064/drv_usbfsv1.o
                0x0001155c                DRV_USBFSV1_Close

.text.memchr%398
                0x00011572       0x16
 .text.memchr   0x00011572       0x16 c:/program files/microchip/xc32/v2.41/bin/bin/../../lib/gcc/pic32c/6.2.1/../../../../pic32c/lib\libc_nano.a(lib_a-memchr-stub.o)
                0x00011572                memchr

.text._USB_HOST_SCSI_RequestSenseCommand%399
                0x00011588       0x14
 .text._USB_HOST_SCSI_RequestSenseCommand
                0x00011588       0x14 build/default/production/_ext/308758920/usb_host_scsi.o
                0x00011588                _USB_HOST_SCSI_RequestSenseCommand

.text._USB_HOST_SCSI_InquiryResponseCommand%400
                0x0001159c       0x14
 .text._USB_HOST_SCSI_InquiryResponseCommand
                0x0001159c       0x14 build/default/production/_ext/308758920/usb_host_scsi.o
                0x0001159c                _USB_HOST_SCSI_InquiryResponseCommand

.text.TC3_Timer16bitPeriodSet%401
                0x000115b0       0x14
 .text.TC3_Timer16bitPeriodSet
                0x000115b0       0x14 build/default/production/_ext/829342655/plib_tc3.o
                0x000115b0                TC3_Timer16bitPeriodSet

.text.TC3_Timer16bitCompareSet%402
                0x000115c4       0x14
 .text.TC3_Timer16bitCompareSet
                0x000115c4       0x14 build/default/production/_ext/829342655/plib_tc3.o
                0x000115c4                TC3_Timer16bitCompareSet

.rodata._USB_HOST_DeviceControlTransferCallback%403
                0x000115d8       0x14
 .rodata._USB_HOST_DeviceControlTransferCallback
                0x000115d8       0x14 build/default/production/_ext/308758920/usb_host.o

.rodata.SYS_FS_MEDIA_MANAGER_Tasks%404
                0x000115ec       0x14
 .rodata.SYS_FS_MEDIA_MANAGER_Tasks
                0x000115ec       0x14 build/default/production/_ext/1269487135/sys_fs_media_manager.o

.text.mem_cpy%405
                0x00011600       0x14
 .text.mem_cpy  0x00011600       0x14 build/default/production/_ext/411819097/ff.o

.rodata.badchr.6388%406
                0x00011614       0x14
 .rodata.badchr.6388
                0x00011614       0x14 build/default/production/_ext/411819097/ff.o

.text.SYS_INT_Restore%407
                0x00011628       0x14
 .text.SYS_INT_Restore
                0x00011628       0x14 build/default/production/_ext/1881668453/sys_int.o
                0x00011628                SYS_INT_Restore

.text.malloc%408
                0x0001163c       0x14
 .text.malloc   0x0001163c       0x14 c:/program files/microchip/xc32/v2.41/bin/bin/../../lib/gcc/pic32c/6.2.1/../../../../pic32c/lib\libc_nano.a(lib_a-malloc.o)
                0x0001163c                malloc

.text.free%409  0x00011650       0x14
 .text.free     0x00011650       0x14 c:/program files/microchip/xc32/v2.41/bin/bin/../../lib/gcc/pic32c/6.2.1/../../../../pic32c/lib\libc_nano.a(lib_a-malloc.o)
                0x00011650                free

.text%410       0x00011664       0x3c
 .text          0x00011664       0x14 c:/program files/microchip/xc32/v2.41/bin/bin/../../lib/gcc/pic32c/6.2.1/../../../../pic32c/lib\libc_nano.a(lib_a-strcmp.o)
                0x00011664                strcmp
 .text          0x00011678       0x14 c:/program files/microchip/xc32/v2.41/bin/bin/../../lib/gcc/pic32c/6.2.1\libgcc.a(_thumb1_case_uqi.o)
                0x00011678                __gnu_thumb1_case_uqi
 .text          0x0001168c       0x14 c:/program files/microchip/xc32/v2.41/bin/bin/../../lib/gcc/pic32c/6.2.1\libgcc.a(_thumb1_case_uhi.o)
                0x0001168c                __gnu_thumb1_case_uhi

.text.DRV_USBFSV1_ClientEventCallBackSet%413
                0x000116a0       0x12
 .text.DRV_USBFSV1_ClientEventCallBackSet
                0x000116a0       0x12 build/default/production/_ext/818654064/drv_usbfsv1.o
                0x000116a0                DRV_USBFSV1_ClientEventCallBackSet

.text.DRV_USBFSV1_HOST_EndpointToggleClear%414
                0x000116b2       0x12
 .text.DRV_USBFSV1_HOST_EndpointToggleClear
                0x000116b2       0x12 build/default/production/_ext/818654064/drv_usbfsv1_host.o
                0x000116b2                DRV_USBFSV1_HOST_EndpointToggleClear

.text.SYS_INT_Disable%415
                0x000116c4       0x12
 .text.SYS_INT_Disable
                0x000116c4       0x12 build/default/production/_ext/1881668453/sys_int.o
                0x000116c4                SYS_INT_Disable

.text.memcpy%416
                0x000116d6       0x12
 .text.memcpy   0x000116d6       0x12 c:/program files/microchip/xc32/v2.41/bin/bin/../../lib/gcc/pic32c/6.2.1/../../../../pic32c/lib\libc_nano.a(lib_a-memcpy-stub.o)
                0x000116d6                memcpy

.text.setbuf%417
                0x000116e8       0x12
 .text.setbuf   0x000116e8       0x12 c:/program files/microchip/xc32/v2.41/bin/bin/../../lib/gcc/pic32c/6.2.1/../../../../pic32c/lib\libc_nano.a(lib_a-setbuf.o)
                0x000116e8                setbuf

.text.__i2b%418
                0x000116fa       0x12
 .text.__i2b    0x000116fa       0x12 c:/program files/microchip/xc32/v2.41/bin/bin/../../lib/gcc/pic32c/6.2.1/../../../../pic32c/lib\libc_nano.a(lib_a-mprec.o)
                0x000116fa                __i2b

.rodata%419     0x0001170c       0x22
 .rodata        0x0001170c       0x11 c:/program files/microchip/xc32/v2.41/bin/bin/../../lib/gcc/pic32c/6.2.1/../../../../pic32c/lib\libc_nano.a(lib_a-nano-svfprintf.o)
 .rodata        0x0001171d       0x11 c:/program files/microchip/xc32/v2.41/bin/bin/../../lib/gcc/pic32c/6.2.1/../../../../pic32c/lib\libc_nano.a(lib_a-nano-vfprintf.o)

.text._USB_HOST_MSD_ControlTransferCallback%421
                0x0001172e       0x10
 .text._USB_HOST_MSD_ControlTransferCallback
                0x0001172e       0x10 build/default/production/_ext/308758920/usb_host_msd.o
                0x0001172e                _USB_HOST_MSD_ControlTransferCallback

.text._USB_HOST_SCSI_CommandCallback%422
                0x0001173e       0x10
 .text._USB_HOST_SCSI_CommandCallback
                0x0001173e       0x10 build/default/production/_ext/308758920/usb_host_scsi.o
                0x0001173e                _USB_HOST_SCSI_CommandCallback

.text._USB_HOST_SCSI_TestUnitReadyCommand%423
                0x0001174e       0x10
 .text._USB_HOST_SCSI_TestUnitReadyCommand
                0x0001174e       0x10 build/default/production/_ext/308758920/usb_host_scsi.o
                0x0001174e                _USB_HOST_SCSI_TestUnitReadyCommand

.text.USB_HOST_SCSI_Tasks%424
                0x0001175e       0x10
 .text.USB_HOST_SCSI_Tasks
                0x0001175e       0x10 build/default/production/_ext/308758920/usb_host_scsi.o
                0x0001175e                USB_HOST_SCSI_Tasks

.rodata.USBTPList%425
                0x00011770       0x10
 .rodata.USBTPList
                0x00011770       0x10 build/default/production/_ext/1171490990/usb_host_init_data.o
                0x00011770                USBTPList

.text.USB_HOST_EventHandlerSet%426
                0x00011780       0x10
 .text.USB_HOST_EventHandlerSet
                0x00011780       0x10 build/default/production/_ext/308758920/usb_host.o
                0x00011780                USB_HOST_EventHandlerSet

.text.st_dword%427
                0x00011790       0x10
 .text.st_dword
                0x00011790       0x10 build/default/production/_ext/411819097/ff.o

.rodata.LfnOfs%428
                0x000117a0       0x10
 .rodata.LfnOfs
                0x000117a0       0x10 build/default/production/_ext/411819097/ff.o

.rodata.cst.6425%429
                0x000117b0       0x10
 .rodata.cst.6425
                0x000117b0       0x10 build/default/production/_ext/411819097/ff.o

.rodata.cst32.6426%430
                0x000117c0       0x10
 .rodata.cst32.6426
                0x000117c0       0x10 build/default/production/_ext/411819097/ff.o

.rodata.defopt.6427%431
                0x000117d0       0x10
 .rodata.defopt.6427
                0x000117d0       0x10 build/default/production/_ext/411819097/ff.o

.text.disk_initialize%432
                0x000117e0       0x10
 .text.disk_initialize
                0x000117e0       0x10 build/default/production/_ext/565198302/diskio.o
                0x000117e0                disk_initialize

.text.DRV_USBFSV1_USB_Handler%433
                0x000117f0       0x10
 .text.DRV_USBFSV1_USB_Handler
                0x000117f0       0x10 build/default/production/_ext/818654064/drv_usbfsv1.o
                0x000117f0                DRV_USBFSV1_USB_Handler

.text.memset%434
                0x00011800       0x10
 .text.memset   0x00011800       0x10 c:/program files/microchip/xc32/v2.41/bin/bin/../../lib/gcc/pic32c/6.2.1/../../../../pic32c/lib\libc_nano.a(lib_a-memset.o)
                0x00011800                memset

.text._cleanup_r%435
                0x00011810       0x10
 .text._cleanup_r
                0x00011810       0x10 c:/program files/microchip/xc32/v2.41/bin/bin/../../lib/gcc/pic32c/6.2.1/../../../../pic32c/lib\libc_nano.a(lib_a-findfp.o)
                0x00011810                _cleanup_r

.text._malloc_usable_size_r%436
                0x00011820       0x10
 .text._malloc_usable_size_r
                0x00011820       0x10 c:/program files/microchip/xc32/v2.41/bin/bin/../../lib/gcc/pic32c/6.2.1/../../../../pic32c/lib\libc_nano.a(lib_a-nano-msizer.o)
                0x00011820                _malloc_usable_size_r

.rodata%437     0x00011830        0xf
 .rodata        0x00011830        0xf c:/program files/microchip/xc32/v2.41/bin/bin/../../lib/gcc/pic32c/6.2.1/../../../../pic32c/lib\libc_nano.a(lib_a-dtoa.o)

.text.main%438  0x00011840        0xe
 .text.main     0x00011840        0xe build/default/production/_ext/1360937237/main.o
                0x00011840                main

.text.FATFS_eof%439
                0x0001184e        0xe
 .text.FATFS_eof
                0x0001184e        0xe build/default/production/_ext/1269487135/sys_fs_fat_interface.o
                0x0001184e                FATFS_eof

.text.mem_set%440
                0x0001185c        0xe
 .text.mem_set  0x0001185c        0xe build/default/production/_ext/411819097/ff.o

.text.DRV_USBFSV1_HOST_ROOT_HUB_PortNumbersGet%441
                0x0001186a        0xe
 .text.DRV_USBFSV1_HOST_ROOT_HUB_PortNumbersGet
                0x0001186a        0xe build/default/production/_ext/818654064/drv_usbfsv1_host.o
                0x0001186a                DRV_USBFSV1_HOST_ROOT_HUB_PortNumbersGet

.text%442       0x00011878        0xe
 .text          0x00011878        0xe c:/program files/microchip/xc32/v2.41/bin/bin/../../lib/gcc/pic32c/6.2.1/../../../../pic32c/lib\libc_nano.a(lib_a-strlen.o)
                0x00011878                strlen

.text.NVMCTRL_Initialize%443
                0x00011888        0xc
 .text.NVMCTRL_Initialize
                0x00011888        0xc build/default/production/_ext/1593096446/plib_nvmctrl.o
                0x00011888                NVMCTRL_Initialize

.rodata.sysfsMountTable%444
                0x00011894        0xc
 .rodata.sysfsMountTable
                0x00011894        0xc build/default/production/_ext/1171490990/initialization.o
                0x00011894                sysfsMountTable

.text.TC3_TimerCallbackRegister%445
                0x000118a0        0xc
 .text.TC3_TimerCallbackRegister
                0x000118a0        0xc build/default/production/_ext/829342655/plib_tc3.o
                0x000118a0                TC3_TimerCallbackRegister

.rodata.usbHostInitData%446
                0x000118ac        0xc
 .rodata.usbHostInitData
                0x000118ac        0xc build/default/production/_ext/1171490990/usb_host_init_data.o
                0x000118ac                usbHostInitData

.text.SYS_FS_MEDIA_MANAGER_RegisterTransferHandler%447
                0x000118b8        0xc
 .text.SYS_FS_MEDIA_MANAGER_RegisterTransferHandler
                0x000118b8        0xc build/default/production/_ext/1269487135/sys_fs_media_manager.o
                0x000118b8                SYS_FS_MEDIA_MANAGER_RegisterTransferHandler

.text.__sclose%448
                0x000118c4        0xc
 .text.__sclose
                0x000118c4        0xc c:/program files/microchip/xc32/v2.41/bin/bin/../../lib/gcc/pic32c/6.2.1/../../../../pic32c/lib\libc_nano.a(lib_a-stdio.o)
                0x000118c4                __sclose

.rodata.p05.6081%449
                0x000118d0        0xc
 .rodata.p05.6081
                0x000118d0        0xc c:/program files/microchip/xc32/v2.41/bin/bin/../../lib/gcc/pic32c/6.2.1/../../../../pic32c/lib\libc_nano.a(lib_a-mprec.o)

.text.fstat%450
                0x000118dc        0xc
 .text.fstat    0x000118dc        0xc c:/program files/microchip/xc32/v2.41/bin/bin/../../lib/gcc/pic32c/6.2.1/../../../../pic32c/lib\libpic32c.a(fstat.o)
                0x000118dc                fstat

.rodata%451     0x000118e8        0xb
 .rodata        0x000118e8        0xb c:/program files/microchip/xc32/v2.41/bin/bin/../../lib/gcc/pic32c/6.2.1/../../../../pic32c/lib\libc_nano.a(lib_a-locale.o)

.text.USB_HOST_DeviceEndpointQueryContextClear%452
                0x000118f4        0xa
 .text.USB_HOST_DeviceEndpointQueryContextClear
                0x000118f4        0xa build/default/production/_ext/308758920/usb_host.o
                0x000118f4                USB_HOST_DeviceEndpointQueryContextClear

.text.SYS_FS_MEDIA_MANAGER_DeRegister%453
                0x000118fe        0xa
 .text.SYS_FS_MEDIA_MANAGER_DeRegister
                0x000118fe        0xa build/default/production/_ext/1269487135/sys_fs_media_manager.o
                0x000118fe                SYS_FS_MEDIA_MANAGER_DeRegister

.text.FATFS_read%454
                0x00011908        0xa
 .text.FATFS_read
                0x00011908        0xa build/default/production/_ext/1269487135/sys_fs_fat_interface.o
                0x00011908                FATFS_read

.text.FATFS_lseek%455
                0x00011912        0xa
 .text.FATFS_lseek
                0x00011912        0xa build/default/production/_ext/1269487135/sys_fs_fat_interface.o
                0x00011912                FATFS_lseek

.text.FATFS_gets%456
                0x0001191c        0xa
 .text.FATFS_gets
                0x0001191c        0xa build/default/production/_ext/1269487135/sys_fs_fat_interface.o
                0x0001191c                FATFS_gets

.text.FATFS_write%457
                0x00011926        0xa
 .text.FATFS_write
                0x00011926        0xa build/default/production/_ext/1269487135/sys_fs_fat_interface.o
                0x00011926                FATFS_write

.text.FATFS_truncate%458
                0x00011930        0xa
 .text.FATFS_truncate
                0x00011930        0xa build/default/production/_ext/1269487135/sys_fs_fat_interface.o
                0x00011930                FATFS_truncate

.text.FATFS_sync%459
                0x0001193a        0xa
 .text.FATFS_sync
                0x0001193a        0xa build/default/production/_ext/1269487135/sys_fs_fat_interface.o
                0x0001193a                FATFS_sync

.text.FATFS_putc%460
                0x00011944        0xa
 .text.FATFS_putc
                0x00011944        0xa build/default/production/_ext/1269487135/sys_fs_fat_interface.o
                0x00011944                FATFS_putc

.text.FATFS_puts%461
                0x0001194e        0xa
 .text.FATFS_puts
                0x0001194e        0xa build/default/production/_ext/1269487135/sys_fs_fat_interface.o
                0x0001194e                FATFS_puts

.text.FATFS_printf%462
                0x00011958        0xa
 .text.FATFS_printf
                0x00011958        0xa build/default/production/_ext/1269487135/sys_fs_fat_interface.o
                0x00011958                FATFS_printf

.text.FATFS_error%463
                0x00011962        0xa
 .text.FATFS_error
                0x00011962        0xa build/default/production/_ext/1269487135/sys_fs_fat_interface.o
                0x00011962                FATFS_error

.text._USB_HOST_MSD_InterfaceRelease%464
                0x0001196c        0x8
 .text._USB_HOST_MSD_InterfaceRelease
                0x0001196c        0x8 build/default/production/_ext/308758920/usb_host_msd.o
                0x0001196c                _USB_HOST_MSD_InterfaceRelease

.rodata.sysFSInit%465
                0x00011974        0x8
 .rodata.sysFSInit
                0x00011974        0x8 build/default/production/_ext/1171490990/initialization.o
                0x00011974                sysFSInit

.rodata.sysTimeInitData%466
                0x0001197c        0x8
 .rodata.sysTimeInitData
                0x0001197c        0x8 build/default/production/_ext/1171490990/initialization.o
                0x0001197c                sysTimeInitData

.text.TC3_TimerFrequencyGet%467
                0x00011984        0x8
 .text.TC3_TimerFrequencyGet
                0x00011984        0x8 build/default/production/_ext/829342655/plib_tc3.o
                0x00011984                TC3_TimerFrequencyGet

.rodata.hcdTable%468
                0x0001198c        0x8
 .rodata.hcdTable
                0x0001198c        0x8 build/default/production/_ext/1171490990/usb_host_init_data.o
                0x0001198c                hcdTable

.text.SYS_FS_Tasks%469
                0x00011994        0x8
 .text.SYS_FS_Tasks
                0x00011994        0x8 build/default/production/_ext/1269487135/sys_fs.o
                0x00011994                SYS_FS_Tasks

.text.SYS_FS_EventHandlerSet%470
                0x0001199c        0x8
 .text.SYS_FS_EventHandlerSet
                0x0001199c        0x8 build/default/production/_ext/1269487135/sys_fs.o
                0x0001199c                SYS_FS_EventHandlerSet

.rodata%471     0x000119a4        0x8
 .rodata        0x000119a4        0x8 build/default/production/_ext/1269487135/sys_fs.o

.rodata.gPartitionTypeOffset%472
                0x000119ac        0x8
 .rodata.gPartitionTypeOffset
                0x000119ac        0x8 build/default/production/_ext/1269487135/sys_fs_media_manager.o
                0x000119ac                gPartitionTypeOffset

.text.FATFS_getlabel%473
                0x000119b4        0x8
 .text.FATFS_getlabel
                0x000119b4        0x8 build/default/production/_ext/1269487135/sys_fs_fat_interface.o
                0x000119b4                FATFS_getlabel

.text.FATFS_getcwd%474
                0x000119bc        0x8
 .text.FATFS_getcwd
                0x000119bc        0x8 build/default/production/_ext/1269487135/sys_fs_fat_interface.o
                0x000119bc                FATFS_getcwd

.text.FATFS_chdir%475
                0x000119c4        0x8
 .text.FATFS_chdir
                0x000119c4        0x8 build/default/production/_ext/1269487135/sys_fs_fat_interface.o
                0x000119c4                FATFS_chdir

.text.FATFS_mkdir%476
                0x000119cc        0x8
 .text.FATFS_mkdir
                0x000119cc        0x8 build/default/production/_ext/1269487135/sys_fs_fat_interface.o
                0x000119cc                FATFS_mkdir

.text.FATFS_unlink%477
                0x000119d4        0x8
 .text.FATFS_unlink
                0x000119d4        0x8 build/default/production/_ext/1269487135/sys_fs_fat_interface.o
                0x000119d4                FATFS_unlink

.text.FATFS_setlabel%478
                0x000119dc        0x8
 .text.FATFS_setlabel
                0x000119dc        0x8 build/default/production/_ext/1269487135/sys_fs_fat_interface.o
                0x000119dc                FATFS_setlabel

.text.FATFS_chmod%479
                0x000119e4        0x8
 .text.FATFS_chmod
                0x000119e4        0x8 build/default/production/_ext/1269487135/sys_fs_fat_interface.o
                0x000119e4                FATFS_chmod

.text.FATFS_utime%480
                0x000119ec        0x8
 .text.FATFS_utime
                0x000119ec        0x8 build/default/production/_ext/1269487135/sys_fs_fat_interface.o
                0x000119ec                FATFS_utime

.text.FATFS_rename%481
                0x000119f4        0x8
 .text.FATFS_rename
                0x000119f4        0x8 build/default/production/_ext/1269487135/sys_fs_fat_interface.o
                0x000119f4                FATFS_rename

.text.FATFS_fdisk%482
                0x000119fc        0x8
 .text.FATFS_fdisk
                0x000119fc        0x8 build/default/production/_ext/1269487135/sys_fs_fat_interface.o
                0x000119fc                FATFS_fdisk

.text.get_fattime%483
                0x00011a04        0x8
 .text.get_fattime
                0x00011a04        0x8 build/default/production/_ext/565198302/diskio.o
                0x00011a04                get_fattime

.text.SYS_INT_Enable%484
                0x00011a0c        0x8
 .text.SYS_INT_Enable
                0x00011a0c        0x8 build/default/production/_ext/1881668453/sys_int.o
                0x00011a0c                SYS_INT_Enable

.text._close%485
                0x00011a14        0x8
 .text._close   0x00011a14        0x8 c:/program files/microchip/xc32/v2.41/bin/bin/../../lib/gcc/pic32c/6.2.1/../../../../pic32c/lib\libpic32c.a(_close.o)
                0x00011a14                _close

.text._fstat%486
                0x00011a1c        0x8
 .text._fstat   0x00011a1c        0x8 c:/program files/microchip/xc32/v2.41/bin/bin/../../lib/gcc/pic32c/6.2.1/../../../../pic32c/lib\libpic32c.a(_fstat.o)
                0x00011a1c                _fstat

.text._isatty%487
                0x00011a24        0x8
 .text._isatty  0x00011a24        0x8 c:/program files/microchip/xc32/v2.41/bin/bin/../../lib/gcc/pic32c/6.2.1/../../../../pic32c/lib\libpic32c.a(_isatty.o)
                0x00011a24                _isatty

.text._lseek%488
                0x00011a2c        0x8
 .text._lseek   0x00011a2c        0x8 c:/program files/microchip/xc32/v2.41/bin/bin/../../lib/gcc/pic32c/6.2.1/../../../../pic32c/lib\libpic32c.a(_lseek.o)
                0x00011a2c                _lseek

.text._read%489
                0x00011a34        0x8
 .text._read    0x00011a34        0x8 c:/program files/microchip/xc32/v2.41/bin/bin/../../lib/gcc/pic32c/6.2.1/../../../../pic32c/lib\libpic32c.a(_read.o)
                0x00011a34                _read

.text._write%490
                0x00011a3c        0x8
 .text._write   0x00011a3c        0x8 c:/program files/microchip/xc32/v2.41/bin/bin/../../lib/gcc/pic32c/6.2.1/../../../../pic32c/lib\libpic32c.a(_write.o)
                0x00011a3c                _write

.text.close%491
                0x00011a44        0x8
 .text.close    0x00011a44        0x8 c:/program files/microchip/xc32/v2.41/bin/bin/../../lib/gcc/pic32c/6.2.1/../../../../pic32c/lib\libpic32c.a(close.o)
                0x00011a44                close

.text.DRV_USBFSV1_HOST_ROOT_HUB_OperationIsEnabled%492
                0x00011a4c        0x6
 .text.DRV_USBFSV1_HOST_ROOT_HUB_OperationIsEnabled
                0x00011a4c        0x6 build/default/production/_ext/818654064/drv_usbfsv1_host.o
                0x00011a4c                DRV_USBFSV1_HOST_ROOT_HUB_OperationIsEnabled

.text.FATFS_tell%493
                0x00010b64        0x4
 .text.FATFS_tell
                0x00010b64        0x4 build/default/production/_ext/1269487135/sys_fs_fat_interface.o
                0x00010b64                FATFS_tell

.text.FATFS_size%494
                0x00011a52        0x4
 .text.FATFS_size
                0x00011a52        0x4 build/default/production/_ext/1269487135/sys_fs_fat_interface.o
                0x00011a52                FATFS_size

.text.disk_status%495
                0x00011a56        0x4
 .text.disk_status
                0x00011a56        0x4 build/default/production/_ext/565198302/diskio.o
                0x00011a56                disk_status

.text.DRV_USBFSV1_HOST_ROOT_HUB_PortResume%496
                0x00011a5a        0x4
 .text.DRV_USBFSV1_HOST_ROOT_HUB_PortResume
                0x00011a5a        0x4 build/default/production/_ext/818654064/drv_usbfsv1_host.o
                0x00011a5a                DRV_USBFSV1_HOST_ROOT_HUB_PortResume

.text.DRV_USBFSV1_HOST_ROOT_HUB_PortSuspend%497
                0x00011a5e        0x4
 .text.DRV_USBFSV1_HOST_ROOT_HUB_PortSuspend
                0x00011a5e        0x4 build/default/production/_ext/818654064/drv_usbfsv1_host.o
                0x00011a5e                DRV_USBFSV1_HOST_ROOT_HUB_PortSuspend

.text%498       0x00011a64        0x4
 .text          0x00011a64        0x4 c:/program files/microchip/xc32/v2.41/bin/bin/../../lib/gcc/pic32c/6.2.1\libgcc.a(_dvmd_tls.o)
                0x00011a64                __aeabi_idiv0
                0x00011a64                __aeabi_ldiv0

.rodata._global_impure_ptr%499
                0x00011a68        0x4
 .rodata._global_impure_ptr
                0x00011a68        0x4 c:/program files/microchip/xc32/v2.41/bin/bin/../../lib/gcc/pic32c/6.2.1/../../../../pic32c/lib\libc_nano.a(lib_a-impure.o)
                0x00011a68                _global_impure_ptr

.rodata%500     0x00011a6c        0x4
 .rodata        0x00011a6c        0x4 c:/program files/microchip/xc32/v2.41/bin/bin/../../lib/gcc/pic32c/6.2.1/../../../../pic32c/lib\libc_nano.a(_lib_a-nano-vfscanf.s.o)

.text.isatty%501
                0x00011a70        0x4
 .text.isatty   0x00011a70        0x4 c:/program files/microchip/xc32/v2.41/bin/bin/../../lib/gcc/pic32c/6.2.1/../../../../pic32c/lib\libpic32c.a(isatty.o)
                0x00011a70                isatty

.text.lseek%502
                0x00011a74        0x4
 .text.lseek    0x00011a74        0x4 c:/program files/microchip/xc32/v2.41/bin/bin/../../lib/gcc/pic32c/6.2.1/../../../../pic32c/lib\libpic32c.a(lseek.o)
                0x00011a74                lseek

.text._USB_HOST_MSD_Deinitialize%503
                0x00005e52        0x2
 .text._USB_HOST_MSD_Deinitialize
                0x00005e52        0x2 build/default/production/_ext/308758920/usb_host_msd.o
                0x00005e52                _USB_HOST_MSD_Deinitialize

.text._USB_HOST_MSD_Reinitialize%504
                0x00009152        0x2
 .text._USB_HOST_MSD_Reinitialize
                0x00009152        0x2 build/default/production/_ext/308758920/usb_host_msd.o
                0x00009152                _USB_HOST_MSD_Reinitialize

.text.USB_HOST_SCSI_Close%505
                0x00009d7a        0x2
 .text.USB_HOST_SCSI_Close
                0x00009d7a        0x2 build/default/production/_ext/308758920/usb_host_scsi.o
                0x00009d7a                USB_HOST_SCSI_Close

.text.EVSYS_Initialize%506
                0x0000ad2a        0x2
 .text.EVSYS_Initialize
                0x0000ad2a        0x2 build/default/production/_ext/1986646378/plib_evsys.o
                0x0000ad2a                EVSYS_Initialize

.text.Dummy_Handler%507
                0x0000b17a        0x2
 .text.Dummy_Handler
                0x0000b17a        0x2 build/default/production/_ext/1171490990/interrupts.o
                0x0000b17a                SVCall_Handler
                0x0000b17a                DMAC_Handler
                0x0000b17a                AC_Handler
                0x0000b17a                SysTick_Handler
                0x0000b17a                PendSV_Handler
                0x0000b17a                SERCOM1_Handler
                0x0000b17a                ADC_Handler
                0x0000b17a                TCC1_Handler
                0x0000b17a                SERCOM2_Handler
                0x0000b17a                TCC0_Handler
                0x0000b17a                RTC_Handler
                0x0000b17a                EIC_Handler
                0x0000b17a                WDT_Handler
                0x0000b17a                TC4_Handler
                0x0000b17a                Dummy_Handler
                0x0000b17a                PM_Handler
                0x0000b17a                SERCOM5_Handler
                0x0000b17a                TCC2_Handler
                0x0000b17a                EVSYS_Handler
                0x0000b17a                SERCOM3_Handler
                0x0000b17a                SERCOM4_Handler
                0x0000b17a                I2S_Handler
                0x0000b17a                NVMCTRL_Handler
                0x0000b17a                SERCOM0_Handler
                0x0000b17a                DAC_Handler
                0x0000b17a                PTC_Handler
                0x0000b17a                TC5_Handler
                0x0000b17a                SYSCTRL_Handler

.text.NonMaskableInt_Handler%508
                0x0000bdf6        0x2
 .text.NonMaskableInt_Handler
                0x0000bdf6        0x2 build/default/production/_ext/1171490990/exceptions.o
                0x0000bdf6                NonMaskableInt_Handler

.text.HardFault_Handler%509
                0x0000c332        0x2
 .text.HardFault_Handler
                0x0000c332        0x2 build/default/production/_ext/1171490990/exceptions.o
                0x0000c332                HardFault_Handler

.text.__malloc_lock%510
                0x0000c742        0x2
 .text.__malloc_lock
                0x0000c742        0x2 c:/program files/microchip/xc32/v2.41/bin/bin/../../lib/gcc/pic32c/6.2.1/../../../../pic32c/lib\libc_nano.a(lib_a-mlock.o)
                0x0000c742                __malloc_lock

.text.__malloc_unlock%511
                0x0000cf9a        0x2
 .text.__malloc_unlock
                0x0000cf9a        0x2 c:/program files/microchip/xc32/v2.41/bin/bin/../../lib/gcc/pic32c/6.2.1/../../../../pic32c/lib\libc_nano.a(lib_a-mlock.o)
                0x0000cf9a                __malloc_unlock
